(lp0
ccopy_reg
_reconstructor
p1
(csklearn.linear_model.logistic
LogisticRegression
p2
c__builtin__
object
p3
Ntp4
Rp5
(dp6
S'warm_start'
p7
I00
sS'C'
p8
F1.0
sS'classes_'
p9
cnumpy.core.multiarray
_reconstruct
p10
(cnumpy
ndarray
p11
(I0
tp12
S'b'
p13
tp14
Rp15
(I1
(I2
tp16
cnumpy
dtype
p17
(S'i8'
p18
I0
I1
tp19
Rp20
(I3
S'<'
p21
NNNI-1
I-1
I0
tp22
bI00
S'\x00\x00\x00\x00\x00\x00\x00\x00\x01\x00\x00\x00\x00\x00\x00\x00'
p23
tp24
bsS'n_jobs'
p25
I1
sS'verbose'
p26
I0
sS'fit_intercept'
p27
I01
sS'max_iter'
p28
I100
sS'class_weight'
p29
NsS'n_iter_'
p30
g10
(g11
(I0
tp31
g13
tp32
Rp33
(I1
(I1
tp34
g17
(S'i4'
p35
I0
I1
tp36
Rp37
(I3
S'<'
p38
NNNI-1
I-1
I0
tp39
bI00
S'\x17\x00\x00\x00'
p40
tp41
bsS'intercept_'
p42
g10
(g11
(I0
tp43
g13
tp44
Rp45
(I1
(I1
tp46
g17
(S'f8'
p47
I0
I1
tp48
Rp49
(I3
S'<'
p50
NNNI-1
I-1
I0
tp51
bI00
S'\x83\xe9\xd7\xc4uh\x18\xc0'
p52
tp53
bsS'penalty'
p54
S'l2'
p55
sS'multi_class'
p56
S'ovr'
p57
sS'random_state'
p58
NsS'_sklearn_version'
p59
S'0.18.1'
p60
sS'dual'
p61
I00
sS'tol'
p62
F0.0001
sS'coef_'
p63
g10
(g11
(I0
tp64
g13
tp65
Rp66
(I1
(I1
I10
tp67
g49
I00
S"\xb0'\xd26\x934\x9e?d\x92\x13\xe1lBz?<\xe6\xcb\xbd\x10\xeb\xdf?\xcdQ\xf5\xcf\x8c#\xe5?\xe9B\x95\xbeN^\x0e@\xe2\x1b\xa5\x98?3\xf4\xbe\xed\xbd\xe4XE\xe0|\xbf4\xfd\xd8\x15\xa0\x16E\xbfW\x89\xbd\xef\xc8\xe1\xa6?lN9\xd9\x87-C?"
p68
tp69
bsS'solver'
p70
S'liblinear'
p71
sS'intercept_scaling'
p72
I1
sba(dp73
S'f1_score'
p74
cnumpy.core.multiarray
scalar
p75
(g49
S'\xdf\xfa\xe1f\x96;\xe5?'
p76
tp77
Rp78
sS'observation_count'
p79
I19020
sS'average_precision_score'
p80
g75
(g49
S'\x97!T\x81\xe0\xe2\xe7?'
p81
tp82
Rp83
sS'normalized-confusion-matrix'
p84
g10
(g11
(I0
tp85
g13
tp86
Rp87
(I1
(I2
I2
tp88
g49
I00
S'\xe27}\xd4\xa3\xc1\xec?\xef@\x16\\\xe1\xf2\xb9?\xde[\xa5)~I\xda?\x11R-\xeb@\xdb\xe2?'
p89
tp90
bsS'label_balance'
p91
g75
(g49
S'tf\xcb\x8a\x1a\x81\xd6?'
p92
tp93
Rp94
sS'pearson-r-pval'
p95
g75
(g49
S'\x00\x00\x00\x00\x00\x00\x00\x00'
p96
tp97
Rp98
sS'recall_score'
p99
g75
(g49
S'\x11R-\xeb@\xdb\xe2?'
p100
tp101
Rp102
sS'auc_score'
p103
g75
(g49
S'\xa3\x137\xe7\xdc\xd5\xea?'
p104
tp105
Rp106
sS'plots'
p107
(dp108
S'plot2'
p109
S'data:image/png;base64,iVBORw0KGgoAAAANSUhEUgAAAoAAAAHgCAYAAAA10dzkAAAABHNCSVQICAgIfAhkiAAAAAlwSFlzAAAPYQAAD2EBqD%2BnaQAAIABJREFUeJzs3XdcVfUfx/HXvchyAC5WoZKDtNyWmSuTxFVaplL%2BCsvRUBPNneHK3FvTLHdaZqWZmtuyFHHlTFHLVQq4AEUBhfv7g7h1QxPrIBfv%2B%2BnjPJLv%2BZ7v%2BZ6DycfPd1yTxWKxICIiIiIOw5zbHRARERGRu0sBoIiIiIiDUQAoIiIi4mAUAIqIiIg4GAWAIiIiIg5GAaCIiIiIg1EAKCIiIuJgFACKiIiIOBgFgCIiIiIORgGgiIiIiINRACgiIiLiYBQAioiIiDgYBYAiIiIiDkYBoIiIiIiDUQAoIv/o6NGjNGrUCE9PT0wmE8uWLTO0/RMnTmAymZg7d66h7d4LSpUqRfv27XO7GyJyD1IAKJIH/PLLL7z22ms88MADuLm54eHhQe3atZk0aRLXrl3L0XuHhYWxf/9%2Bhg8fzoIFC6hRo0aO3u9e9PPPPzN48GBOnDiR210REQHAZLFYLLndCRG5tZUrV9K6dWtcXV15%2BeWXefjhh0lNTeXHH3/kyy%2B/pH379sycOTNH7n3t2jXy58/PO%2B%2B8w3vvvZcj97BYLKSkpODs7IyTk1OO3CO3ffHFF7Ru3ZpNmzbxxBNPZPu6lJQUzGYzzs7OOdc5EXFI%2BXK7AyJya8ePHyc0NJSSJUuyceNG/Pz8rOe6dOnCsWPHWLlyZY7d/9y5cwB4eXnl2D1MJhNubm451n5eY7FYSE5Oxt3dHVdX19zujojcozQELGLHRo8ezZUrV5g1a5ZN8JepTJkydO/e3fr1jRs3GDZsGKVLl8bV1ZVSpUoxYMAAUlJSbK4rVaoUzZs358cff%2BTRRx/Fzc2NBx54gPnz51vrDB48mJIlSwLQu3dvTCYTpUqVAqB9%2B/bW3//V4MGDMZlMNmXr1q2jTp06eHl5UbBgQYKCghgwYID1/K3mAG7cuJG6detSoEABvLy8aNGiBYcOHbrp/Y4dO0b79u3x8vLC09OTV155hatXr976xf7hiSee4OGHH2bfvn3Ur1%2Bf/PnzU6ZMGb744gsAvv/%2Be2rWrIm7uztBQUGsX7/e5vqTJ0/y5ptvEhQUhLu7O0WLFqV169Y2Q71z586ldevWADRo0ACTyYTJZOK7774D/vxerFmzhho1auDu7s6HH35oPZc5B9BisdCgQQOKFy9OXFyctf3U1FQqVqxI6dKlSUpKuu0zi4iAAkARu/bNN9/wwAMP8Pjjj2erfseOHYmIiKBatWpMmDCB%2BvXrM2LECEJDQ7PUPXbsGM8//zxPPfUU48aNo3DhwrRv356DBw8C8NxzzzFhwgQAXnjhBRYsWMDEiRPvqP8HDx6kefPmpKSkMHToUMaNG8czzzzDli1b/vG69evXExISQlxcHIMHD6Znz55s3bqV2rVr33QeXZs2bbh8%2BTIjRoygTZs2zJ07lyFDhmSrj5cuXaJ58%2BbUrFmT0aNH4%2BrqSmhoKIsXLyY0NJSmTZsycuRIkpKSeP7557l8%2BbL12h07drB161ZCQ0OZPHkyr7/%2BOhs2bOCJJ56wBqD16tXjrbfeAmDAgAEsWLCABQsWUL58eWs70dHRvPDCCzz11FNMmjSJKlWqZOmnyWRi9uzZJCcn8/rrr1vLBw0axMGDB5kzZw4FChTI1jOLiGAREbuUkJBgASwtWrTIVv09e/ZYAEvHjh1tynv16mUBLBs3brSWlSxZ0gJYNm/ebC2Li4uzuLq6Wt5%2B%2B21r2fHjxy2AZcyYMTZthoWFWUqWLJmlD4MGDbL89a%2BVCRMmWADLuXPnbtnvzHvMmTPHWlalShWLt7e35cKFC9ayvXv3Wsxms%2BXll1/Ocr9XX33Vps1nn33WUrRo0VveM1P9%2BvUtgGXRokXWssOHD1sAi9lstmzbts1avmbNmiz9vHr1apY2IyMjLYBl/vz51rIlS5ZYAMumTZuy1M/8Xqxevfqm58LCwmzKPvzwQwtg%2BeSTTyzbtm2zODk5WcLDw2/7rCIif6UMoIidSkxMBKBQoULZqr9q1SoAevbsaVP%2B9ttvA2SZK1ihQgXq1q1r/bp48eIEBQXx66%2B//us%2B/13m3MGvv/6a9PT0bF1z9uxZ9uzZQ/v27SlSpIi1vFKlSjz11FPW5/yrv2bEAOrWrcuFCxes7/CfFCxY0CZDGhQUhJeXF%2BXLl6dmzZrW8szf//X9uLu7W39//fp1Lly4QJkyZfDy8mL37t3ZeNoMgYGBhISEZKtu586dCQkJoVu3brz00kuULl2a999/P9v3EhEBDQGL2C0PDw8AmyHHf3Ly5EnMZjNlypSxKff19cXLy4uTJ0/alJcoUSJLG4ULF%2BbSpUv/ssdZtW3bltq1a9OxY0d8fHwIDQ3l888//8dgMLOfQUFBWc6VL1%2Be8%2BfPZ5nr9vdnKVy4MEC2nuX%2B%2B%2B/PMm/R09OTgICALGV/b/PatWtEREQQEBCAq6srxYoVo3jx4sTHx5OQkHDbe2cKDAzMdl2AWbNmcfXqVY4ePcrcuXNtAlERkexQAChipzw8PPD39%2BfAgQN3dN3fg5lbudWWK5Zs7Ax1q3ukpaXZfO3u7s7mzZtZv349L730Evv27aNt27Y89dRTWer%2BF//lWW51bXba7NatG8OHD6dNmzZ8/vnnrF27lnXr1lG0aNFsZzyBOw7gvvvuO%2BvCnv3799/RtSIioABQxK41b96cX375hcjIyNvWLVmyJOnp6Rw9etSmPDY2lvj4eOuKXiMULlyY%2BPj4LOV/zzICmM1mGjZsyPjx4/n5558ZPnw4GzduZNOmTTdtO7Of0dHRWc4dPnyYYsWK2c1ihy%2B%2B%2BIKwsDDGjRtnXVBTp06dLO8mu0F5dpw9e5Zu3brRqFEjmjdvTq9evW763kVE/okCQBE71qdPHwoUKEDHjh2JjY3Ncv6XX35h0qRJADRt2hQgy0rd8ePHA9CsWTPD%2BlW6dGkSEhLYt2%2Bftezs2bMsXbrUpt7FixezXJu5wvXvW9Nk8vPzo0qVKsybN88mkDpw4ABr1661Pqc9cHJyypJlnDJlSpbsZmbAerOg%2BU516tSJ9PR0Zs2axcyZM8mXLx8dOnTIVrZTRCSTNoIWsWOlS5dm0aJFtG3blvLly9t8EsjWrVtZsmSJdZ%2B4ypUrExYWxsyZM4mPj6d%2B/fps376defPm0bJlSxo0aGBYv0JDQ%2Bnbty/PPvssb731FlevXmX69OmUK1fOZvHD0KFD2bx5M82aNaNkyZLExcXxwQcfcP/991OnTp1btj9mzBiaNGlCrVq16NChA9euXWPKlCl4enoyePBgw57jv2revDkLFizA09OTChUqEBkZyfr16ylatKhNvSpVquDk5MSoUaNISEjA1dWVJ598Em9v7zu635w5c1i5ciVz587l/vvvBzICzv/9739Mnz6dN99807BnE5F7mwJAETv3zDPPsG/fPsaMGcPXX3/N9OnTcXV1pVKlSowbN45OnTpZ63788cc88MADzJ07l6VLl%2BLr60v//v0ZNGiQoX0qWrQoS5cupWfPnvTp04fAwEBGjBjB0aNHbQLAZ555hhMnTjB79mzOnz9PsWLFqF%2B/PkOGDLEuqriZ4OBgVq9ezaBBg4iIiMDZ2Zn69eszatSoO14wkZMmTZqEk5MTCxcuJDk5mdq1a1v3MPwrX19fZsyYwYgRI%2BjQoQNpaWls2rTpjgLA3377jR49evD0008TFhZmLW/Xrh1ffvklffr0oUmTJnb1fkTEfumzgEVEREQcjOYAioiIiDgYBYAiIiIiDkYBoIiIiIiDUQAoIiIi4mAUAIqIiIg4GAWAIiIiIg5G%2BwDamfT0dM6cOUOhQoUM/fgoERFxDBaLhcuXL%2BPv74/ZfPfzPMnJyaSmphrWnouLC25uboa1JxkUANqZM2fOEBAQkNvdEBGRPO706dPWT4y5W5KTk3EvVBRuXDWsTV9fX44fP64g0GAKAO1MoUKFAHCpEIbJySWXeyNin059Nza3uyBity4nJlImMMD68%2BRuSk1NhRtXca0QBkb8DEtLJebneaSmpioANJgCQDuTOexrcnJRAChyCx4eHrndBRG7l6vTiPK5GfIzzGLSUoWcojcrIiIi4mCUARQRERFjmQAjMpBaC5ljlAEUERERcTDKAIqIiIixTOaMw4h2JEcoABQRERFjmUwGDQFrDDinKLQWERERcTDKAIqIiIixNARs9xQAioiIiLE0BGz3FFqLiIiIOBhlAEVERMRgBg0BK0%2BVYxQAioiIiLE0BGz3FFqLiIiIOBhlAEVERMRYWgVs9/RmRURERByMMoAiIiJiLM0BtHsKAEVERMRYGgK2e3qzIiIiIg5GGUARERExloaA7Z4CQBERETGWhoDtnt6siIiIiINRBlBERESMZTIZlAHUEHBOUQAoIiIixjKbMg4j2pEcoSFgEREREQejDKCIiIgYS4tA7J7erIiIiIiDUQZQREREjKV9AO2eAkARERExloaA7Z7erIiIiIiDUQZQREREjKUhYLunAFBERESMpSFgu6c3KyIiIuJglAEUERERY2kI2O4pABQRERFjaQjY7unNioiIiDgYZQBFRETEWBoCtnsKAEVERMRgBg0Ba6Ayx%2BjNioiIiDgYBYAiIiJirMwhYCOOO7B582aefvpp/P39MZlMLFu2zOa8xWIhIiICPz8/3N3dCQ4O5ujRozZ1Ll68SLt27fDw8MDLy4sOHTpw5coVmzr79u2jbt26uLm5ERAQwOjRo7P0ZcmSJTz44IO4ublRsWJFVq1adUfPktMUAIqIiMg9ISkpicqVKzNt2rSbnh89ejSTJ09mxowZREVFUaBAAUJCQkhOTrbWadeuHQcPHmTdunWsWLGCzZs307lzZ%2Bv5xMREGjVqRMmSJdm1axdjxoxh8ODBzJw501pn69atvPDCC3To0IGffvqJli1b0rJlSw4cOJBzD3%2BHTBaLxZLbnZA/JSYm4unpiWvFTpicXHK7OyJ26dKOqbndBRG7lZiYiE9RTxISEvDw8Ljr9/b09MS10WhMzu7/uT3L9WukrO3zr57FZDKxdOlSWrZsmdGWxYK/vz9vv/02vXr1AiAhIQEfHx/mzp1LaGgohw4dokKFCuzYsYMaNWoAsHr1apo2bcpvv/2Gv78/06dP55133iEmJgYXl4yf0/369WPZsmUcPnwYgLZt25KUlMSKFSus/XnssceoUqUKM2bM%2BM/vxQjKAIqIiIixMvcBNOIwyPHjx4mJiSE4ONha5unpSc2aNYmMjAQgMjISLy8va/AHEBwcjNlsJioqylqnXr161uAPICQkhOjoaC5dumSt89f7ZNbJvI890CpgERERsWuJiYk2X7u6uuLq6npHbcTExADg4%2BNjU%2B7j42M9FxMTg7e3t835fPnyUaRIEZs6gYGBWdrIPFe4cGFiYmL%2B8T72QBlAERERMZbBi0ACAgLw9PS0HiNGjMjlB8z7lAEUERERYxn8UXCnT5%2B2mQN4p9k/AF9fXwBiY2Px8/OzlsfGxlKlShVrnbi4OJvrbty4wcWLF63X%2B/r6Ehsba1Mn8%2Bvb1ck8bw%2BUARQRERG75uHhYXP8mwAwMDAQX19fNmzYYC1LTEwkKiqKWrVqAVCrVi3i4%2BPZtWuXtc7GjRtJT0%2BnZs2a1jqbN2/m%2BvXr1jrr1q0jKCiIwoULW%2Bv89T6ZdTLvYw8UAIqIiIixcmkfwCtXrrBnzx727NkDZCz82LNnD6dOncJkMhEeHs57773H8uXL2b9/Py%2B//DL%2B/v7WlcLly5encePGdOrUie3bt7Nlyxa6du1KaGgo/v7%2BALz44ou4uLjQoUMHDh48yOLFi5k0aRI9e/a09qN79%2B6sXr2acePGcfjwYQYPHszOnTvp2rWrQS/4v9MQsIiIiBjL4CHg7Nq5cycNGjSwfp0ZlIWFhTF37lz69OlDUlISnTt3Jj4%2Bnjp16rB69Wrc3Nys1yxcuJCuXbvSsGFDzGYzrVq1YvLkydbznp6erF27li5dulC9enWKFStGRESEzV6Bjz/%2BOIsWLWLgwIEMGDCAsmXLsmzZMh5%2B%2BOF/%2ByYMp30A7Yz2ARS5Pe0DKHJrdrEPYLPJxu0DuPKtXHmWe50ygCIiImKsfzF8e8t2JEdoDqCIiIiIg1EGUERERAxlMpkwKQNo1xQAioiIiKEUANo/DQGLiIiIOBhlAEVERMRYpj8OI9qRHKEAUERERAylIWD7pyFgEREREQejDKCIiIgYShlA%2B6cAUERERAylAND%2BaQhYRERExMEoAygiIiKGUgbQ/ikDKCIiIuJglAEUERERY2kfQLunAFBEREQMpSFg%2B6chYBEREREHowygiIiIGMpkwqAM4H9vQm5OAaCIiIgYyoRBQ8CKAHOMhoBFREREHIwygCIiImIoLQKxfwoARURExFjaBsbuaQhYRERExMEoAygiIiLGMmgI2KIh4ByjDKCIiIiIg1EGUERERAxl1CIQY7aSkZtRACgiIiKGUgBo/zQELCIiIuJglAEUERERY2kbGLunAFBEREQMpSFg%2B6chYBEREREHowygiIiIGEoZQPunAFBEREQMpQDQ/mkIWERERMTBKAMoIiIihlIG0P4pAygiIiLiYJQBFBEREWNpH0C7pwBQREREDKUhYPunIWARERERB6MMoIiIiBhKGUD7pwBQREREDKUA0P5pCFj%2Bs9fa1OPwyiFc2jaBzfN7UeOhkv9Yv%2BuLT7B36btcjBzP0W%2BHMfrt53B1%2BfPfIgXzuzKmVyuiVw3lYuR4Ns3tSfUKJWzaKODuwoS%2BrTm2ehgXI8ez%2B8t36Ph8nSz3qlkpkG8/7Mb5reOI/WEM62aF4%2BbqbD2/ZOJrHFk1lEvbJvDr2uHMGvYyfsU9reffea0p136amuU4v3WczX08C7ozoV8bfl07nPioCexbFkFInQp39EwA777RjF/XDudi5HhWzuhK6RLFbc4fXjkkS196vfJUlnbCX2rIvmURxEdN4Jc179GnQ4j1nG8xD%2Ba%2B3559yyJI2jWZMb1aZblejDXjg2kElSmFV0E36j5ekx3bt9%2By7s8HDxLaphVBZUrh7mxiyqSJ/6rNWR/NpFHDJ/Au4oG7s4n4%2BPgsbTz/7DOUfaAEXgXdCAzw49Wwlzhz5oxNHYvFwoTxY6lYoRyeBVx5oOR9jBox3Hp%2B2dKvaNb4KQL8iuNdxIP6dWqxbu0amzZmzpjOI1Ur4V3Ew1pnzepvbeokJycT3q0L9/kUpZhXQULbtCI2NtamzqaNG3ii7uMUL1yIUvf78k7/vty4ceOm7%2BeXY8coXrgQvsW8bMqXLf2K2jVr4FvMi6KeBahZvQqLPllgUyc2NpZOr7YnsIQ/RTzy80yzxhw7evSm9xHJq5QBlP/k%2BUbVGPX2s3QbvpgdB07Q9cUGLP%2BgC5VbDuXcpStZ6rdtXINhb7Xg9cELidz7K2VLevPR0JewAH3HfQXA9IgXqVDGn1cHzuPsuQReaPooK2d0o1qr9zhzLgGAUW%2B34olHyvHKO/M5eeYCwbXKM6l/G86eS2Dl9/uBjODv66lvMnbOWnqOWsKNtHQqlbuP9HSLtT%2BbdxxhzKw1xJxPwN/bixE9nmXRmA40aD8egInz1/PxFz/YPMOqD99i18GT1q%2Bd8zmxckZX4i5epl3vWfweF08J/yIkXL5mrZOdZ3q7fTBvvlCfThELOPH7BSLebM4307pQtdV7pKT%2B%2BUNuyAcrmPPVFuvXl5NSbPo3rs/zNHzsQfpPWMqBo2co4pmfwh4FrOddnPNx/tJlRn68mm7tGmTjuyz/xZLPF9O3d0%2BmTJvBI4/WZOrkiTzTLIS9B6Px9vbOUv/q1asEBj7Ac61a07dXj3/d5tWrV3kqpDFPhTQm4p3%2BN22nXv0G9O47AF8/P878/jv9%2B/bixbbP890PW6113u7RnQ3r1zJi1FgefrgiFy9e5NKli9bzP/6wmSeDn2LIsPfx8vJi/rw5tGr5NJu3RFGlalUA7rv/foa9P5IyZcpisVj4ZME8Wj/Xgm07fqLCQw8B0OftHnz77UoWfrYEDw9PenTvSmjr59i0OePP%2Br69e2n5dFP69n%2BHWXPmc%2BbM73Tr8jppaWmMHD3W5rmuX7/Oy/97gdp16rItcqvNuSJFitCn/zsEBT2Ii4sLq1auoHPHVyju7c1TjUKwWCy0adUSZ2dnlnz5NR4eHkyeOJ6mjYP5ad/PFChQAMkGrQK2eyaLxWK5fTW5WxITE/H09MS1YidMTi653Z3b2jy/F7sOnqTHqCVARrr%2B2OphTP/se8bOWZel/oS%2BrQkK9KXp61OsZSN7PssjD5ei4asTcHN15tyPY2ndYyarfzxorbNlYR/WbvmZIR%2BsAGDnkgF8sXY3Iz9afcs63897mw1Rhxn6wcpsP0%2Bz%2BhX5fHwnPGuGc%2BNGepbzFcvdx/bF/Ql%2BdQJbfvoFgI7P16HHyw2p/Nywm16T3Wf6de1wJi/YyMQFGwDwKOjGyfUj6DzoE5as2QVkZACnLtzE1EXf3bT/QYE%2B7Fg8gOqth3P0ZNxtn3fNR93ZF/0bvcd%2Bedu69uTSjqm53YVsq/t4TarXeISJkzP6nJ6eTpnAAN7o0o3effr947VBZUrRtVs43bqH/%2Bs2N3//HSHBDTh77hJeXrbZsL9b8c1y2rRqSUJSCs7Ozhw%2BdIhHqlVi154DlAsKyvYzV6v8EM%2B3bsuAgRG3rOPvXYT3R46h/asdSEhIIMCvOHMXLOK5Vs8DEH34MFUqlue7HyKp%2BdhjRAwcwIb169iybYe1jZUrvuF/L7Th1Jk4ChUqZC1/p39fzp45Q4MnG9L77XBizmfNfv5VrUeq0bhpMwYNGcbRI0eo9FAQu/YcsAan6enplLrflyHD3ueVDh2z/R5yS2JiIj5FPUlISMDDw%2BOu39vT05P7On%2BK2SX/f24vPfUqv898IVee5V6nIWD515zzOVG1fAAbo6KtZRaLhY1R0TxaKfCm12zbe5yqFQKsw8Sl7itKSO2HrIFRPicz%2BfI5kZx63ea65JTrPF61tE07zetXxP%2BP4dp6NcpStqQ367cdAqB44YI8WimQcxevsGluT06sf5%2B1H3fn8SoP3PJ5CnvkJ7RJDbbtPX7TQA7glWcf58iJWGvwBxlBY9S%2B40zs15YT699n55IB9H61EWazKdvPVOq%2BovgV92Rj1GHr%2BcQryew4cIKalUrZXPf2K434bdMoIj/tS4%2BXG%2BLk9Of/xs3qVeT47%2BdpWu9hDq0YzOGVQ/gg4kUKe/z3v4jlzqWmpvLT7l082TDYWmY2m3nyyWC2b4u0mzYBLl68yGefLuSxWo/j7JwxTWLlym8IfOABVq1awYNlAwkqU4o3Onfk4sWLt2wnPT2dy5cvU7hwkZueT0tL4/PFn5GUlETNx2oB8NPuXVy/ft3mmYIefJCAEiWI%2BuOZUlJScHNzs2nL3d2d5ORkftq9y1r23aaNfPXlEiZOmXbbZ7ZYLGzauIEjR6KpU7ee9T6Azb3MZjMurq5s3fLjbdsUySsUAMq/VqxwQfLlcyLu4mWb8rgLifgWvfm/1Bav3smw6SvZMKcHidsncWjFEDbvOsqY2WsBuHI1hW17f6V/pyb4FffEbDYR2vQRalYKxLfYn232HLWEQ7/G8Mva4SRun8TyaW8SPvJztuzOCMwC7y8GZMzhm/3VVlp0%2BYA9h06z6sNuWebVvfdWC85vHceZ70cT4FeE1j1m3rTvri75aNukBvOW2f6QDbyvKM8GV8XJycSz3aYz8qPVdH%2BpIf06Ns72M2X%2BN%2Bu7vIzPX97lB59%2Bz8v95tC48yRmfbmF3h1CeD%2B8pfV8qfuLUcKvCM8FV6XjuwvoFPEJVcsHsGhMh5s%2Bk%2BSs8%2BfPk5aWhre3j025t48PMTExdtHmO/37UtSzAPf5FOX0qVMs%2Bepr67kTv/7KqZMn%2BeqLJXw8Zz4fzZrLT7t38WLb52/Z3oTxY0m6coVWrdvYlB/Yv59iXgXxLODKW11eZ/EXSylfIWOebExMDC4uLlkylN7ePsTGZjzTU41C2Ba5lcWffUpaWhq///477783FICzZ88CcOHCBTp1aM9Hs%2Bb%2BY7YoISGBYl4F8cjvwrPPNGP8xCk0DM6YS5sZeL47sD%2BXLl0iNTWVsWNG8ftvvxETczabb1UyF4EYcUjOUAAod1Xd6mXp/WoI3UcsptaLo2jbcyZN6jxEv06NrXVeHTgfkyljSDQhaiJdXqjP56t32szdezO0Po9WLEWr7jN4vN0o%2Bo1fysR%2BbWhQM2OYKjP7NuvLH1mwfBt7o3%2Bjz7ivOHIijrAWtWz6NGH%2Beh4LHUWz16eSlpbOx8NeumnfWzxZmUL53fjkmyibcrPZzLmLl%2Bky7FN%2BOnSaL9buZvSsNTaLUrLzTNkx%2BZON/LDrKAeOnuHjL36k3/iveKNtfVycM6bzmk0m3Fyd6fDuArb89As/7DrKG0MW8sSjQZQtmXW%2BmUiPt3uzbcdPrPh2LU5OTnR85WUyZwalp6eTkpLCrDnzqVOnLvXqP8H0mbP4/rtNHImOztLWZ58u4v1hQ/jk08%2BzzG8sFxRE1M49bN4SRafX3qDTq2Ec%2BvnnbPcz%2BKlGvD9yDG91eR3PAq5UqlCOkCZNgYz/BwHefL0TbUNftGbzbqVQoUJE7dzDj5E7GDxsOH1792Tz998B4OzszGeff8WxI0fw9y5CEY/8bP5uEyGNm1jvI3Iv0CIQ%2BdfOX7rCjRtpeBcpZFPuXdSDmAuJN71m0JvN%2BHTlduYuzciiHTx2hvzurkwb%2BAKjPl6DxWLh%2BG/nadRxEvndXPAo6EbM%2BUQWjHyF47%2BfBzLm1A3p9jRte35kHTo%2BcPQMlYLuJ/ylhmyKiubsuYz7H/rVNiMSfTyGAN/CNmUX4pO4EJ/EsVNxRB%2BP4dia96hZKZCofcdt6rVv%2BTjf/nAgS5Yu5nwC12%2Bk2QRzh4/H4FfcE%2Bd8Tly/kXbbZ4o5n9Ff7yKFrL/PeJeF2Bf9262%2BBezYfwKDU09GAAAgAElEQVRnZydK%2Bhfh6Mm4jL5cT%2BPYqT/n/x0%2BnrGSMsC3SLbmBYpxihUrhpOTE3FxtqtZ42Jj8fX1tYs2ixUrRrFixShbrhxBD5anbGAAUdu28VitWvj6%2BZEvXz7Klitnrf9g%2BfIAnD59ymZe4OeLP%2BPN1zqy8LMlNkO5mVxcXChdpgwA1apXZ9fOHUybMomp0z/E19eX1NRU4uPjbbKAcXGx%2BPj8%2BUzde/TkrfAenD17lsKFC3PyxAki3ulPYGDG1I7vN21k5TfLmTg%2BY1GIxWIhPT2dgm75mDZ9JmGvvApkBIyZfalcpQrRhw4xZtQI6tV/wtq/qF17SEhIIDU1leLFi2fMu6xe447fr6MyYdA2MFoFkmP0zxmDXb58mXbt2lGgQAH8/PyYMGECTzzxBOHh4be/OI%2B5fiONnw6dtmbdICPt3%2BDRcmz/W/CUyd3NJUvWKz09/Y9rbeteTU4l5nwiXoXcCX68PCu%2By1jd65zPCRfnfKT/bf1SWlq6NfN38swFzsTFU66UbRaiTElvTp299fylzOszM2qZSvoXpf4jZZm7LOscq8g9v1I6oLjNX3ZlS3hz9lxGYJidZzrx%2BwXOnkuweZeFCrjxyMOliNp34pb9rRx0P2lp6Zz7IyiN3PMrzs5O1iFwwJr5%2B6fnlpzh4uJC1WrV2bRxg7UsPT2dTZs28Ohjtf7hyrvb5l/bAUhNzZgHV%2Bvx2ty4cYNff/lzzuvRI0cAKFHiz%2B2eFn/2Ka91fIV5n3xKk6bNsn2vzPl2VatVx9nZ2eaZjkRHc/rUKes8wUwmkwl/f3/c3d35fPGn3B8QQNVq1QD47odIonbusR4Rg4das33PtHw2W335K09PT4oXL86xo0fZvWsnzZ9pka1nEw0B5wXKABqsZ8%2BebNmyheXLl%2BPj40NERAS7d%2B%2BmSpUqud21HDH5k418NPQldv18ip1/bAOT392V%2BV9vA%2BDjYS9xJi6BiCnLAVi1%2BQBv/a8Be6N/Y/v%2BE5QOKE7EG81ZtXm/NTAMrlUekwmOnIijdEBx3u/RkiPHY5m/PCP4upyUzOadR3k/vCXXkq9z6uxF6lYvQ7vmj9J3/FfWvk2Yt56Brzdj/5Hf2Rv9G/97uiZBpXx4sfcsAB55uCTVHyrJ1p9%2BIf7yVQLvL86gN5vxy6lzWbJ/YS0fI%2BZ8Imu2HOTvPlryA6%2B3rce4Ps/zwaffU6ZEcXp3aMQHn35vrXO7ZwKYtmgTfTs25tipc5z4/QKD3mzG2XMJLN%2B0F8jY1uaRh0vy/c6jXE5K5rFKgYzq1YpPV%2B0g/o8tZzZGRbP751N8OLgdvcd8idlsYmK/NqyPPGSTFaxU7j4ACuR3pVjhglQqdx%2BpN9I4/Ou/m5cmt/ZWeE86vRpG9eo1qPHIo0ydPJGrSUm8HPYKAB3av4z/ffcxbPgIIGORR%2BbQaGpqKmfO/M7ePXsoWLCgNWt1uzYhY15dbEwMvxw7BsCBA/spVLAQASVKUKRIEbZHRbFr5w4er10Hr8KFOf7rLwwZ9C4PlC5tDbqebBhM1arVeK3Tq4wZN5H09HTC3%2BpCw%2BCnrFnBzz5dRKdXwxg7fhKPPFrTOg/R3d0dT8%2BMRVrvvtOfkMZNCAgoweXLl1n82SI2f/8d36zK2C/Q09OT9q90oG/vnhQpUoRChTzoGd6Nmo/VouZjj1mfafy4MTRq1Biz2czXy75i7OiRfPLp5zg5OQF/Zicz7d61E7PZzEMPP2wtGzNqBNWq1%2BCBB0qTkpLC6tWrWLRwAZOnTrfW%2BfKLJRQvXpyAgBIcOLCfXj2783SLlgQ/1ejf/0EQsTMKAA10%2BfJl5s2bx6JFi2jYsCEAc%2BbMwd/f/5bXpKSk2PzLMzHx5kOn9uqLtbspVrggEW80w6doIfZF/06LLtOsw6QBvkVsMn4jP16NxWJh0JvN8ff25PylK6zcfIDBU7%2Bx1vEs6MbQbs9wn48XFxOu8vWGPQya9o3NytyX%2B81maLcWzH0/jMIe%2BTl19iKDp63goyV/rtKbuug73FydGf12Kwp75mf/kd9p/sZUjv%2BWMex6Nfk6LZ6szMDXm1HA3YWY8wms3XqIUR/NJvX6n/vumUwmXnr6MRYsj7rpnL3fYuN5pssHjH77OXZ83p8zcfFMW/Qd4%2Bb%2BuQ1Odp5p3Nz15Hd3ZerAF/Aq5M7WPb/wTJcPrHsApqRep3VIdd55vSmuzvk4ceYCUxZuYvKCjdY2LBYLz4d/yPi%2BrVk3K5yka6ms3fIz/f4SGANELf5zX7jqFUoQ2vQRTp65wIPNBv3zN1zuWOs2bTl/7hxDh0QQGxNDpcpV%2BHrFanx8MhZxnD59ymZu2dkzZ3jskarWryeOH8vE8WOpW68%2Bazd8l602AT6eOYPhw4ZYv36qQca8uJkfz%2BGlsPbkz5%2Bfr5d9xXtDB5GUlISvnx%2BNGjWm74CBuLq6AhlDpV8s%2B4ae4d146sl6FChQgEYhTRg55s%2BN0Gd/PJMbN24Q/lYXwt/qYi3/30thfDR7LgDn4uLo8MrLxJw9i6enJw9XrMQ3q9ZYF14AjB43AbPZzAttWpGSkkJwoxAmTfnA5l2uXf0to0cMJyUlhYqVKrPkq68Jadzkjr4fSUlJdO/2Jr//9hvu7u6UC3qQ2fM%2BoXWbttY6MWfP0rd3z4xhdT8/2v3vZfq/8%2B4d3cfhaR9Au6d9AA20d%2B9eqlSpwsmTJylR4s9PeahWrRr16tVj4sSsO/oPHjyYIUOGZCnPK/sAiuSGvLQPoMjdZg/7AJZ8cwlmVwP2AUy5yskPWmsfwBygOYC5rH///iQkJFiP06dP53aXRERE5B6nANBADzzwAM7OzuzY8edO9QkJCRz5Y9L0zbi6uuLh4WFziIiI5GVaBGL/NAfQQIUKFSIsLIzevXtTpEgRvL29GTRoEGazWX%2BIRUTEYZhMWXd2%2BLftSM5QBtBg48ePp1atWjRv3pzg4GBq165N%2BfLls3yEkYiIiEhuUQBosEKFCrFw4UKSkpI4e/YsnTt3Jjo6mjJ/bN8gIiJyr8vIABoxBJzbT3Lv0hCwwX766ScOHz7Mo48%2BSkJCAkOHZnxWZYsW2kBURERE7IMCwBwwduxYoqOjcXFxoXr16vzwww8UK1bs9heKiIjcCwyaA6h9AHOOAkCDVa1alV27duV2N0RERHKNUSt4tYAy52gOoIiIiIiDUQZQREREDKVtYOyfAkARERExlNlswmz%2B79GbxYA25OY0BCwiIiLiYJQBFBEREUNpCNj%2BKQAUERERQ2kVsP3TELCIiIiIg1EGUERERAylIWD7pwygiIiIiINRBlBEREQMpTmA9k8BoIiIiBhKAaD90xCwiIiIiINRACgiIiKGylwEYsSRXWlpabz77rsEBgbi7u5O6dKlGTZsGBaLxVrHYrEQERGBn58f7u7uBAcHc/ToUZt2Ll68SLt27fDw8MDLy4sOHTpw5coVmzr79u2jbt26uLm5ERAQwOjRo//T%2B8oNCgBFRETEUCZM1mHg/3SQ/Qhw1KhRTJ8%2BnalTp3Lo0CFGjRrF6NGjmTJlirXO6NGjmTx5MjNmzCAqKooCBQoQEhJCcnKytU67du04ePAg69atY8WKFWzevJnOnTtbzycmJtKoUSNKlizJrl27GDNmDIMHD2bmzJnGvLy7RHMARUREJM/bunUrLVq0oFmzZgCUKlWKTz/9lO3btwMZ2b%2BJEycycOBAWrRoAcD8%2BfPx8fFh2bJlhIaGcujQIVavXs2OHTuoUaMGAFOmTKFp06aMHTsWf39/Fi5cSGpqKrNnz8bFxYWHHnqIPXv2MH78eJtA0d4pAygiIiKGMnoIODEx0eZISUnJcs/HH3%2BcDRs2cOTIEQD27t3Ljz/%2BSJMmTQA4fvw4MTExBAcHW6/x9PSkZs2aREZGAhAZGYmXl5c1%2BAMIDg7GbDYTFRVlrVOvXj1cXFysdUJCQoiOjubSpUvGvsgcpAygiIiIGMroVcABAQE25YMGDWLw4ME2Zf369SMxMZEHH3wQJycn0tLSGD58OO3atQMgJiYGAB8fH5vrfHx8rOdiYmLw9va2OZ8vXz6KFCliUycwMDBLG5nnChcu/G8f965SACgiIiJ27fTp03h4eFi/dnV1zVLn888/Z%2BHChSxatMg6LBseHo6/vz9hYWF3s7t5ggJAERERMZTRHwXn4eFhEwDeTO/evenXrx%2BhoaEAVKxYkZMnTzJixAjCwsLw9fUFIDY2Fj8/P%2Bt1sbGxVKlSBQBfX1/i4uJs2r1x4wYXL160Xu/r60tsbKxNncyvM%2BvkBZoDKCIiInne1atXMZttwxonJyfS09MBCAwMxNfXlw0bNljPJyYmEhUVRa1atQCoVasW8fHx7Nq1y1pn48aNpKenU7NmTWudzZs3c/36dWuddevWERQUlGeGf0EBoIiIiBjMkC1g7nAe4dNPP83w4cNZuXIlJ06cYOnSpYwfP55nn33W2qfw8HDee%2B89li9fzv79%2B3n55Zfx9/enZcuWAJQvX57GjRvTqVMntm/fzpYtW%2BjatSuhoaH4%2B/sD8OKLL%2BLi4kKHDh04ePAgixcvZtKkSfTs2dP4F5mDNAQsIiIihjJ6CDg7pkyZwrvvvsubb75JXFwc/v7%2BvPbaa0RERFjr9OnTh6SkJDp37kx8fDx16tRh9erVuLm5WessXLiQrl270rBhQ8xmM61atWLy5MnW856enqxdu5YuXbpQvXp1ihUrRkRERJ7aAgbAZPnrFtmS6xITE/H09MS1YidMTi63v0DEAV3aMTW3uyBitxITE/Ep6klCQsJt583lxL09PT2p9u4KnNwK/Of20pKT2D2sea48y71OGUARERExlNHbwIjxFACKiIiIsQwaAr6DT4KTO6RFICIiIiIORhlAERERMZSGgO2fAkARERExVG6sApY7oyFgEREREQejDKCIiIgYSkPA9k8ZQBEREREHowygiIiIGEpzAO2fAkARERExlIaA7Z%2BGgEVEREQcjDKAIiIiYihlAO2fAkARERExlOYA2j8NAYuIiIg4GGUARURExFAaArZ/CgBFRETEUBoCtn8aAhYRERFxMMoAioiIiKE0BGz/FACKiIiIoUwYNAT835uQW9AQsIiIiIiDUQZQREREDGU2mTAbkAI0og25OWUARURERByMMoAiIiJiKG0DY/8UAIqIiIihtArY/mkIWERERMTBKAMoIiIihjKbMg4j2pGcoQBQREREjGUyaPhWAWCO0RCwiIiIiINRBlBEREQMpVXA9k8BoIiIiBjK9McvI9qRnKEhYBEREREHowygiIiIGEqrgO2fMoAiIiIiDkYZQBERETGUPgnE/ikAFBEREUNpFbD9c9gAcO3atdmu26hRoxzsiYiIiMjd5bABYOPGjbNVz2QykZaWlsO9ERERuXeYTSbMBqTvjGhDbs5hA8Br167ldhdERETuSRoCtn8OGwC6urretDw9PR2zWYujRURE5N6lSIeMoG/MmDGULl0aNzc3fv31VwCGDBnC/Pnzc7l3IiIieUvmKmAjDskZCgCBUaNGMW3aNAYMGEC%2BfH8mRcuVK8eMGTNysWciIiJ5T%2BYQsBGH5AwFgMCcOXOYOXMmHTp0wMnJyVpepUoVDh8%2BnIs9ExERETGew84B/KvTp09Trly5m55LSUm5y70RERHJ27QK2P4pAwgEBQURGRmZpXzp0qVUqlQpF3okIiIiknOUAQQGDhzIa6%2B9RlxcHOnp6axatYro6Gg%2B%2Bugjli5dmtvdExERyVNMfxxGtCM5QwEg8Pzzz%2BPl5cWQIUPIly8f4eHhVKlShSVLltCkSZPc7p6IiEieos8Ctn8KAP8QHBxMcHAwABaLRX/oRERE5J6lAPAvDhw4wKFDhwCoUKECDz30UC73SEREJO8xmzIOI9qRnKEAEIiJieGll15iw4YNuLu7A5CcnEyDBg1YsGABfn5%2BudxDERGRvENDwPZPq4CBjh07cunSJX766SeSkpJISkpi9%2B7dJCQk0KlTp9zunoiIiIihlAEENmzYwI8//kjlypWtZZUrV%2BaDDz6gfv36udgzERGRvEnJO/umABDw9/e/abnJZMLX1/cu90ZERCRv0xCw/dMQMDBy5Ei6devGgQMHrGUHDhwgPDycUaNG5WLPRERERIznsBlAPz8/m39ZXLp0icqVK1sXgVy7dg0XFxe6d%2B9O69atc6ubIiIieY5WAds/hw0ABw8enNtdEBEREckVDhsAvvbaa7ndBRERkXuS5gDaP4cNAG8lPT2dGzdu2JS5uLjkUm9ERETyHn0WsP3TIhAy5vv16tWLEiVK4OLigru7u80hIiIici9RAAj079%2Bf5cuXM2LECFxcXJg2bRr9%2B/fHx8eH2bNn53b3RERE8hSzyWTYITlDQ8DA0qVLmT17Ng0bNuT1118nODiYMmXKULp0ab788kvCwsJyu4siIiJ5hslkzEbQiv9yjjKAwPnz5ylbtiwAHh4eXLp0CYAnnniCTZs25WbXRERERAynABAIDAzk1KlTAAQFBfHVV18BsGbNGjw8PHKzayIiInlO5ipgIw7JGQoAgZdeeokdO3YA0Lt3b8aPH4%2BHhwddunShe/fuudw7ERGRvCVzCNiIQ3KG5gACffv2tf6%2BSZMmHDhwgB07dlCmTBkeffTRXOyZiIiIiPEUAN5E2bJlrXMCRURE5M4YtYJXq4BzjsMGgDNnzsx23c6dO%2BdgT0RERETuLocNAAcNGpSteiaTSQGgiIjIHdA2MPbPYQPAs2fP5nYXRERE7kn6LGD757ABoL3b%2BuVQChbSFjQiNxN57EJud0HEbiVduZzbXZA8QAGgiIiIGMqMMfvMaa%2B6nKMAUERERAylIWD7p%2BBaRERE7gm///47//vf/yhatCju7u5UrFiRnTt3Ws9bLBYiIiLw8/PD3d2d4OBgjh49atPGxYsXadeuHR4eHnh5edGhQweuXLliU2ffvn3UrVsXNzc3AgICGD169F15PiMpABQRERFDmUxgNuC4kwTgpUuXqF27Ns7Oznz77bf8/PPPjBs3jsKFC1vrjB49msmTJzNjxgyioqIoUKAAISEhJCcnW%2Bu0a9eOgwcPsm7dOlasWMHmzZttdgNJTEykUaNGlCxZkl27djFmzBgGDx58R9vL2QMNAf9h%2B/btzJw5k19%2B%2BYWFCxfi7%2B/PZ599RqlSpXjsscdyu3siIiJ5RmYAZ0Q72TVq1CgCAgKYM2eOtSwwMND6e4vFwsSJExk4cCAtWrQAYP78%2Bfj4%2BLBs2TJCQ0M5dOgQq1evZseOHdSoUQOAKVOm0LRpU8aOHYu/vz8LFy4kNTWV2bNn4%2BLiwkMPPcSePXsYP358nto2ThlAYPny5dSvX5%2BUlBQiIyOt/xKIi4vjvffey%2BXeiYiIOLbExESbIyUlJUud5cuXU6NGDVq3bo23tzdVq1blo48%2Bsp4/fvw4MTExBAcHW8s8PT2pWbMmkZGRAERGRuLl5WUN/gCCg4Mxm81ERUVZ69SrVw8XFxdrnZCQEKKjo7l06ZLhz55TFAACQ4YMYerUqSxYsABnZ2dreZ06ddi1a1cu9kxERCTvyVwEYsQBEBAQgKenp/UYMWJElnv%2B%2BuuvTJ8%2BnbJly7JmzRreeOMN3nrrLebNmwdATEwMAD4%2BPjbX%2Bfj4WM/FxMTg7e1tcz5fvnwUKVLEps7N2vjrPfICDQEDhw8fpmHDhlnKvby88lQ0LyIici86ffo0Hh5/7o3r6uqapU56ejo1atTg/fffB6Bq1aocOHCAGTNmEBYWdtf6mlcoAwh4e3tz/PjxLOWRkZE28wdERETk9oxYAPLXeYQeHh42x80CQD8/PypUqGBTVr58eU6dOgWAr68vALGxsTZ1YmNjred8fX2Ji4uzOX/jxg0uXrxoU%2Bdmbfz1HnmBAkDglVdeITw8nL1792Iymbhw4QJffvklvXr1ylMTOkVEROxB5mcBG3FkV%2B3atYmOjrYpO3LkCCVLlgQyFoT4%2BvqyYcMG6/nExESioqKoVasWALVq1SI%2BPt5m%2BtfGjRtJT0%2BnZs2a1jqbN2/m%2BvXr1jrr1q0jKCjIZsWxvdMQMDBw4ECuX79OrVq1SE5O5rHHHiNfvny89dZb9OjRI7e7JyIiIrfRo0cPHn/8cd5//33atGlj3d0jc3sWk8lEeHg47733HmXLliUwMJB3330Xf39/WrZsCWRkDBs3bkynTp2YMWMG169fp2vXroSGhuLv7w/Aiy%2B%2ByJAhQ%2BjQoQN9%2B/blwIEDTJo0iQkTJuTas/8bCgABs9nMsGHD6NevH9HR0Vy5coWKFSvmqUheRETEXphNJswGfIrHnbTxyCOPsHTpUvr378/QoUMJDAxk4sSJtGvXzlqnT58%2BJCUl0blzZ%2BLj46lTpw6rV6/Gzc3NWmfhwoV07dqVhg0bYjabadWqFZMnT7ae9/T0ZO3atXTp0oXq1atTrFgxIiIi8tyIoclisVhyuxPyp8TERDw9Pdl15CwFC3nc/gIRB/R7/LXc7oKI3Uq6cpmnHwkkISHBZuHE3ZD5M6znkl245i/4n9tLuXqF8a2r58qz3OuUAQSaNm36j%2BdXrVp1l3oiIiIikvMUAIJ1gmim69evs2fPHo4dO8YLL7yQS70SERHJm%2B50Acc/tSM5QwEgMH369JuWDxgwAI2Qi4iI3BkzBs0BRBFgTtE2MP/glVdesfkYGREREZF7gTKA/2D37t02Hw0nIiIit6chYPunAJCMPX3%2BymKxcPbsWbZs2UKfPn1yqVciIiIiOUMBIGSZ52c2m6lSpQo9e/bkmWeeyaVeiYiI5E1//Ri3/9qO5AyHDwDT0tLo0aMHQUFBeHp65nZ3RERE8jyT6c42cf6ndiRnOPwiECcnJ%2BrWrcuFCxdyuysiIiIid4XDB4AAFSpU4PTp07ndDRERkXtC5iIQIw7JGQoAgdGjR9OrVy/Wr1/PpUuXSE1NtTlEREQk%2BzLnABpxSM5w%2BDmAACEhITb//bu0tLS72R0RERGRHKUAEPj2229zuwsiIiL3DNMfv4xoR3KGQweAQ4cOpVevXrfM/ImIiMid0zYw9s%2Bh5wAOGTKEK1eu5HY3RERERO4qh84A/n0DaBEREfnvlAG0fw6dAQQwaY25iIiIOBiHzgAClCtX7rZB4MWLF%2B9Sb0RERPI%2Bk8lkSIJFSZqc4/AB4JAhQ/QRcCIiIgbSELD9c/gAMDQ0FG9v79zuhoiIiMhd49ABoFLLIiIixjPqY9z0YzrnOHQAqFXAIiIixjObTJgNiN6MaENuzqEDwPT09NzugoiIiMhd59ABoIiIiBhPi0DsnwJAERERMZZBcwD1UcA5x%2BE3ghYRERFxNMoAioiIiKHMmDAbkL4zog25OWUARURERByMMoAiIiJiKO0DaP8UAIqIiIihtArY/mkIWERERMTBKAMoIiIihtIngdg/BYAiIiJiKM0BtH8aAhYRERFxMMoAioiIiKHMGDQErH0Ac4wCQBERETGUhoDtn4aARURERByMMoAiIiJiKDPGZJiUpco5erciIiIiDkYZQBERETGUyWTCZMAEPiPakJtTACgiIiKGMv1xGNGO5AwNAYuIiIg4GGUARURExFD6KDj7pwBQREREDKfQzb5pCFhERETEwSgDKCIiIobSJ4HYPwWAIiIiYihtA2P/NAQsIiIi4mCUARQRERFD6aPg7J8CQBERETGUhoDtn4JrEREREQejDKCIiIgYSh8FZ/%2BUARQRERFxMMoAioiIiKE0B9D%2BKQAUERERQ2kVsP3TuxURERFxMMoAioiIiKE0BGz/FACKiIiIobQK2P5pCFhERETEwSgDKCIiIoYymTIOI9qRnKEAUERERAxlxoTZgAFcI9qQm9MQsIiIiIiDUQZQREREDKUhYPunDKCIiIiIg1EGUERERAxl%2BuOXEe1IzlAAKCIiIobSELD90xCwiIiIiINRBlBEREQMZTJoGxgNAeccBYAiIiJiKA0B2z8NAYuIiIg4GAWAIiIiYqjMDKARx781cuRITCYT4eHh1rLk5GS6dOlC0aJFKViwIK1atSI2NtbmulOnTtGsWTPy58%2BPt7c3vXv35saNGzZ1vvvuO6pVq4arqytlypRh7ty5/76juUQBoIiIiBjKZOCvf2PHjh18%2BOGHVKpUyaa8R48efPPNNyxZsoTvv/%2BeM2fO8Nxzz1nPp6Wl0axZM1JTU9m6dSvz5s1j7ty5REREWOscP36cZs2a0aBBA/bs2UN4eDgdO3ZkzZo1/%2B5l5RIFgCIiInLPuHLlCu3ateOjjz6icOHC1vKEhARmzZrF%2BPHjefLJJ6levTpz5sxh69atbNu2DYC1a9fy888/88knn1ClShWaNGnCsGHDmDZtGqmpqQDMmDGDwMBAxo0bR/ny5enatSvPP/88EyZMyJXn/bcUAIqIiIihzCbjjjvVpUsXmjVrRnBwsE35rl27uH79uk35gw8%2BSIkSJYiMjAQgMjKSihUr4uPjY60TEhJCYmIiBw8etNb5e9shISHWNvIKrQIWERERu5aYmGjztaurK66urlnqffbZZ%2BzevZsdO3ZkORcTE4OLiwteXl425T4%2BPsTExFjr/DX4yzyfee6f6iQmJnLt2jXc3d3v8OlyhzKAIiIiYiij5wAGBATg6elpPUaMGJHlnqdPn6Z79%2B4sXLgQNze3u/3IeY4ygCIiImIoo/cBPH36NB4eHtbym2X/du3aRVxcHNWqVbOWpaWlsXnzZqZOncqaNWtITU0lPj7eJgsYGxuLr68vAL6%2Bvmzfvt2m3cxVwn%2Bt8/eVw7GxsXh4eOSZ7B8oABQDLJzzIbM%2BmMi5c7E8WKEi7w4fR6WqNW573cplS%2Bj5RnsahjTng7mLreVrV37NZ/M/5uD%2BPcRfusiydVsp/3Blm2tTkpMZOaQ/q77%2BgtSUFOo8EcygkRMoVjwjLf/V4gX0D3/9pvfduv84RYt5szNqK2OHv8vxYzvqqZMAACAASURBVEe4du0q/veVIPSlV2n/Wjdr3SljhzN13Ps21weWLsfqH3%2ByKftpZxQTRg5m3%2B6dmJ2cKP9QJWZ9%2BjVuf/vLIDUlhdbN6nP44H6b5/rt9EkaPlohS18Xr9hEleqPAnD9%2BnU%2BnDKWZZ8vJDbmDIGly9LrnWHUe7KRtf6ieR/x6byP%2BP30KQDKBpXnzR79qN8wxFononc3tv6wibjYs%2BTPX5Cqj9Sk1zvDKF026KbvS/67%2B7xcCSjqjouTmaSUGxyJvcrl5Bv/b%2B/O45uq8v6Bf27SrE2TrulCF1paoQUrVBEqMwoqoILKIyOiPgwoOMIUlB0dkc2FHzzyKMOijijgPIDDiAICgyJLFWS3oDAIspfudE3SZr%2B/PwIXQltkCSRMPu959fWa3HvuuecGS758v%2BecNNk2zqBCZrzO65jLLeK7I1XSa7kApBlDEa1TQCGXwepw4Uy1FcU1NqmNWiFDujEUBk0IZAJQZXHgSJkFDpconU%2BJ0iBCq4AyRAa7043SOhtOnW2AeMmYkiLVSAhXQx0ig8MloqjGilOVDY3GbtCEoH2yHhabC3tO1krHE8JVaBGuhlrhKTpZ7C6cPNuAKotDatM%2BWY8IrcKrv6JqK46UWRrdJ0QmoGOqAWqFHN8fqYLTfWHE4doQpBtDEaqUw%2Bp041RlA0prbV7XK0NkaBWjRZROAZkgoMHuwi%2BlZpisLgBAtzZRje4JAEfLLSissjZ5jm4svV7vFQA25YEHHsDPP//sdey5555DmzZtMGHCBCQlJUGhUGDjxo3o27cvAODw4cM4ffo0cnNzAQC5ubl46623UF5eDqPRCADYsGED9Ho9srKypDbr1q3zus%2BGDRukPm4VDADpuqxb9TmmT3kFU2fMxh0dOmLxR/Mw%2BOnHsX5rAaKijc1ed6bwFGZM%2Bwvu6tSl0bn6egtyOt2Dhx/ri4lj85q8/u3JE5D/7Xq897e/IyzMgDdeG43hg5/BZ6s3AgAeeewP%2BH237l7XvPLyi7DbbNK4tFot/vu5F9E6qx002lDs3fkDJo9/CRptKJ4a8Lx0XUbrTCxcvkZ6LZd7/9oU7NmJIc/0wYsjxuD1t2ZBLg/BL//%2BGTJZ4xkWM994DcbYePxy8OdG5wBg0fI1SG%2BdKb0Oj7jwQfTejKlYveIzvPnOXKSlt8b3W77F8MFP47PVG5F1e3sAQFx8C4x9bRpSUtMhiiJWLl%2BCvOeewpcbfkBGa89fXm2zO%2BDRJ55CfGISaqurMGfW2xjc/zFs3PVvyOXyJsdF184YpkS6MRSHyyyoa3AiKVKNO5LCsPN4jRSMXcrpcmPn8Rrp9aWt0mNDEa5V4FCJGVaHGxFaBW6LC4XN6Ual2QGZALRP0sNsc2JfoWfuVGq0FtmJeuw95QnMtEo5BACHSy1ocLgQqpKjTZwOckHAsYp66V4ZRi0iQpU4Wm6BxeZCiEyAQt74v%2B0QmYDMeB1qLA4oQrzP25xuHKuoR4PdE2DFGVS4PTEMu0/Uov7cMQAorrHixEX3bubtQZt4HSw2F9QK7/9e1QoZshP1KKqx4t/FZkRoFWgdFwq70y0FmyEyATkpetRYHNhfaILD5YZGIff6s9j2a5VXv5E6JdrEhaLCZG96QNSIAN98jdvV9BAWFoZ27dp5HQsNDUVUVJR0fPDgwRg9ejQiIyOh1%2BsxYsQI5ObmonPnzgCAHj16ICsrCwMGDMDMmTNRWlqKiRMnIi8vT8o6Dh06FHPnzsX48ePx/PPPY9OmTVi%2BfDnWrl173c97MzEApOuy8MM56Pfsc%2Bjb/48AgKkz/4otG9djxbJP8acRY5u8xuVyYWze8xgxdiL27tyGutpar/N9nnwGgCdIbIqprhYrli3GO/MXIvd3XQEAb7/7AR65Nwf79u5C%2Bzvvhlqj8cq%2BVZ2twM5t%2BXhz1nzpWNbt7aXACQASk1KwYd1q7Nm5zSsAlIeEIMYY1%2Bx7MH3yBAwYPMzredPSb2vULn/j19iWvwlzFizBd5u%2BabKv8IjIZu%2B16vNlGPbyeNz3wEMAgGcGvoDt323GJx/8Fe/M%2BwQAcH%2BPR7yuGfXqFCz7dAH27d0tBYAXP1tiUgpGTpiExx/ojKLCU0humdbsc9K1SYpUo7jWJmWhDpdaEBWqRLxBhdPNZJNEAPbmoh8Aek0ISmttqKn3ZBFLam1oEaGGXh2CSrMDBo0CaoUMu09a4DqXHTtUYsbvMyIQoVWgut6BKovDKwNndbhxuqoBLcLVUgCoVcqREKHGrhM1aLC7LxqBC5e6LS4UZXU2iACidUqvc5Vmh9frE2cb0CJCDYMmxCsAdLnFyz434MkmhsgFnDxbj6hL7pMQrkaDw4Vj5Z7x19tdMGhDkBihlp41OUoDm8ONX0ovZBatDrdXP5eOIVqnRE29s1E7at61ruBtqh9fevfddyGTydC3b1/YbDb07NkT8%2Bdf%2BFyQy%2BVYs2YNhg0bhtzcXISGhmLgwIGYNm2a1CY1NRVr167FqFGjMHv2bCQmJmLBggXo2bNnU7cMWAwA6ZrZ7XYc/KkAL14U%2BMhkMtzz%2B24o2Lur2evm/e90REXF4MlnBmLvzm1Xfd8DPxXA4XDgnt93k461ymiNhBZJ2Ldnp1QyvdjKz5dCrdHiod7/1Wy///55Hwr27MDICZO9jp86fgy/a98KKpUa7e%2B8G2P%2BMg0JiUkAgMqz5dj/4248%2BsRT6P/o/Th98jjS0ltj5CuTcVene6Q%2BzlaU4fVxwzHvk39ArdU2O4ZhA/vBZrOiZVoGhuSNwgM9e0nnHHY7lCrvic0qtRo/7mp66wGXy4X1X32B%2BnoLOjTxngCebOsXn/0dicktEZeQ2Oy46NoIAHTqkEbl0qp6O/QaBYCmA0C5TEBuK88cJZPVheMV9V6BUl2DE9E6JUpqbbA73QjXhkCjkEtBjkzmCSLd4oVAxi2KEAEYtCGorvcOyM4LkQlembBonQJWuxvROiVahKsBAai2OHCsvN6r7BpnUEGjkONQsRkp0b89B8oYpoRcEFDb4F0Gj9WrEKtXwe7yZDJPnq3HRbeBVilHy2gt9p6shUbZOAtp0ISg2uL9bFUWBzKMF37nonUKVFkcaJugQ7hWAZvTjaJqK0ouKROfp5ALiNJ5sq1069myZYvXa7VajXnz5mHevHnNXpOSktKoxHuprl27oqCg4LJtAh0DQB/r2rUr2rdvj/fee8/fQ7nhqqsq4XK5EBXjXeqNijHi%2BNEjTV6zZ%2BcP%2BHzZYqzccO37JZ0tL4NCqYTe4L2UPyrGiIqKsiav%2BXzpp%2Bj9X/0azckDgHtzMlBVeRYupxPDx7yGJ58dJJ3L7nAXps/%2BEKmtMlBRVop5/zsdz/bpjq%2B27IZOF4bCUycBAHNnvY3xk95CZttsrPznUgzq1wtrNu9GyzRPKfaVl19E/wFDcHv7nCYzm1ptKF6ZPB05d%2BdCkMnwzdqVyHvuKcxb%2BA8pCPxd1wew6MM56Ni5C5JbpmH795uxYd1quNze2ZjDhw6gf%2B/7YbNZoQ3VYd4ny7zKygCwZNHf8M4bE1Ffb0Fqq9uw8B9fQan0zqbQ9VOECJAJAuxO74ySwykiVNt0aqPe5sIvJWap3JoUpcGdKXrsOlELm9OTgTpSZkHruFB0SY/wBHki8EupWQqo6hqccLtFtIrR4vi5bF4roxYyQYCyifItAGgUMiRGqHG0/EIJVq2QQ6WQISZMiUMlZggCkG4MRbsWYVJpWaPwzKf78VRto1L1xUJVcuSkGCATPJm%2Bn4tMXkFtWa0NNqcbNqcbOpUcaTFaaJUyHCjyBF6CALRN0OFYuQU2p7vJAPD8XMaL2Z1uhMhlkAmAW/Q8U0K4HGeqGnCqsgFh6hBkxIZCFIHSusZBYLxBBZdbxFmWf6/K9XyLx6X90I3BAJBuGrPZhPEjhuCN/5mLyKjom3bfgj07cezXXzBzzoImzy9ZuQH1FjP2792NWW9PQkpqGnr/Vz8A8Fo80SbrdtyR0xHdOmbiX6u/wJPPDITb7fmweeq/n5fK4Fm3t8f2rVuwYtmnGPPaNPz94/dhMZvx4ktNl8QBIDIqGs8NfUl6nd3%2BTpSXluDj%2Be9JAeBr0/4HE8cOx8O/7wBBEJDUMg1P9B%2BAFZ996tVXaqvbsPLb7TDV1eHrNV9iwksv4v%2B%2BWO8VBD72xFPocu/9qCgrxccfzMbIPw3AstUboeLWCX5XZ3Wi7qLEYO0ZE%2B5OC0dCuAonznoyiYkRahjUCvx0pg5WhxvhGgVui9XB7jShut4Bh0vEgSIzWseFIjFCDRFAeZ292YUnyhAZspP0KDfZvTJhguDJRh4qNqPhXPnzlxIzOqaGQ6OUocHuRlZCGE6crZfON6fe5sKeEzWQywQY9Z6FLgWn66Qg8OL7Wmwu2JxudEg2QK2oh9XhRqsYLSx2F8rqri8QEwTA1ODE8XPvpdnmgk4lR0KEqskAMM6gRlmdzSsTSb/N16uAyfcYANI1i4iMglwuR2VFudfxyopyRBtjG7UvPHkcRYWnMGzgk9Kx8wFUVqIe67fuu6I5aNHGWDjsdtTV1nhlASsryhET0/i%2B/1y6CJntstHujg5N9peU3BIA0DqzHc5WlGPOrLelAPBSekM4Wqal4/SJYwCAmFjPfL1Wt7Xxatcqow2KiwoBADu25mPf3p24PSXCq03fh36PR594CjP%2B%2BlGT97ojpyN%2B%2BG6T9DoyOgbzF/0DNqsVNdVVMMbF4523XkdScqrXdUqlEimprQAA7e7ogJ/378WnC%2BZj2v/MkdqE6Q0I0xvQMi0dd9x5N%2B5u0wIb/rW62eema%2BNwinCLIpQh3p9iihABNueVRRQiALPVCY3Ss%2BBBJgBpMVocOGNC5blyp8Xmgk4tR1KkWirvVtc7sON4DRRyAaIION0i7kmPQIPDO2OsDBHQIVmPugYnDpd6r7i1Od1wi6JXcHc%2BYFOHyOFwitBrQqBThyIjNhTAucn/goD7Wkdif2GdNE9RBKR%2BzBX1CFPLkRihbnKVL%2BDJYgKesq/V4Ua4VgGdSo6Y1pHSfQCgS0YETlU24OTZBtidbigvWYCiDJHB6XJLAZzd6YbF7v0eWOwuxIQ13lbEoAlBqEqOg8VNl4eJbmXcCPoGcLvdGD9%2BPCIjIxEXF4cpU6b4e0g3hFKpRNvsDti%2BdYt0zO12Y/vWLU3OOUtLb42vNu/Cym%2B3Sz/39%2BiFTl3uxcpvt1/xHLR22R2gUCiw/fsL9z1%2B9AiKiwrR/q5OXm0tFjP%2BtfoL/OHpgVfUt1t0w2Fr/i97i8WMwlMnpMAvMSkFxrh4nDj2q1e7k8d/RYvEZADAxDffwaqNO6Rn/tv/fQEAePeDTzHqlSnN3uvQgZ%2BaXBCiUqsRG58Ap9OJb9au8pon2OQzud2w2y/zASaKEEXx8m3ompwP3iJCvbc3idAqUNfQ9Dy8poSqQqTSpiB4ysqXho%2Bi2HS2xOES4XSLCNeGQCkXcNZ8IYOmDJGhQ7IBJquzyTlutfVOyARB2r4FgBSIWh0uON0idh2vwZ4TtdJPcY3Nsw3MiVopiGuKAAFNLJSXhKk9%2BYnzZe8DRSbsvug%2B5xdxFJyqQ1G1J2Va2%2BBstJVMpFbhNdewtt4JrdJ79bAnyGy8sCU%2BXIW6Bicstsbn6PIEH/7QjcEM4A2wePFijB49Gjt37sT27dsxaNAgdOnSBd27d//ti28xz704AhNe/hPa3dEB2e3vwuKP5qGhvh5P9B8AABg/Yghi4xIw5rVpUKnVuK1NW6/r9QYDAHgdr6muQklRIcrLSgBACq6ijbGIMcYhTG9A36cH4v9NeQWGiAjodHq8OXEMOtzVqdECkHWrVsDlcuKxvv0bjX3Jwg8R3yJJWrG7e8c2fPL%2BbAwYPExqM2Pqq%2BjW/REkJCWjvLQEc955EzKZHL37eLKYgiBg8LCRmPPOW2jT9nZkts3Gl8uX4PjRI/jrR0sAQFowcp421LPHW3LLVMQltAAAfLn8/6BQKKV9ATesW40Vn32KN2ddmKi8/8fdKCspRma7bJSVFGPOrLfgdrsxJG%2BU1GbWW5Nw7/09EJ%2BYBIvZhDVfLMeuH77Hx8tWAQAKT53AulWfo8t9DyIyKhqlJUX429xZUGs0XuVu8p3CKivaxOtganChzupEYoQacpkglTwz43WwOd3SXL2WURrUNjjR4PDMAUyO0kCtkEl7/LncIqrrHWhl1MJdZpGyY3EGFY6WX8imxRlUqLe5YHe5YdB45rkVVlul1bye4E8Pq8OFo%2BX1UMovfNSeXwVbXe%2BAyepEZrwOv57L1N0WF4oqi13K5l2aTbO7PFnDi4%2BnxWhRabbD5nRDLhMQq1chXBuC/YWeMqxaIUOsXoVKsx1Ot4hQlRwZxlDU1Duk4OvSFbiKc1nVertLWpBSXGNFYoQarWK0KKm1IlyrQIxeiZ/PmC78eVQ3ICfFgJQoDcrrbAjThCAhXI3Dpd4BsFwmwBjm/Z4S/SdhAHgDZGdnY/Jkz0rSjIwMzJ07Fxs3bmwyALTZbLBdlHG69PsOA90jj/8BVZVn8deZb6KiogyZbbOxYOlKaUPmkqIzTe6HdzmbvlnrtYnzqKGe7N3wMX/BiLGvAQD%2BMnUGZDIZXhryrNdG0JdasWwxuj/8WKMFI4AnM/a/b0/CmdOnIA8JQXJKKsZOfAP9BwyW2pSWFGP0nwehproKkVHRuPPue7B87WZERsdIbQb9aTjsNiumT56A2upqtGl7Oz757Kur3lJl/rszUHzmNOQhIUhLvw3vfvip16plm9WK92ZMQ%2BHpE9BqdbjvgR6YOedj7zJ4ZQUmvPQCystLERamR%2Busdvh42Sp0ue8BAIBSpcaenT9g8UfzUFdbg6gYI%2B7q1AXLVm%2B87L6NdO3KTXYo5PVIjfFsBG22OfFToUlabatSyCBelM8LkQtoEx8KpVwGh1uE2erEj6e898v7d5EJaTFaZMWHIUQuwOpw40RFvddG0FqlZyGF4tz5U2cbUFh9YXJhZKgCWqUcWqUcXdK9FwBt/qVS%2Bv8/nalDRmwoOiQb4BJFVJntXgtFroRCLiAzQQeVXAanW4TZ5sT%2BQpNUrhZFz3iSItWQCQJsTjcqTHacbGKz6cuxOtz46Uwd0o2euY82pxuHSy1e292YrC4cOON5/1KiNLA6XPi1zNJobqExzPOeXO%2Bcw2AlgydT7Yt%2B6MYQRFHk1FYf6tq1K9q2beu1xPzxxx9HVFQUPvnkk0btp0yZgqlTpzY6vvdICXRhl9/1nChYFdVcXWBAFEwsZhMe7ZiK2tra3/z2DF%2Brq6uDwWDAtz%2BeQqgPPsMspjo8mJPil2f5T8c5gDeAQuE9B0UQBGmxw6VeffVV1NbWSj%2BFhYU3Y4hEREQUxFgC9jOVStXkl1oTERHdsny1goMV4BuGASARERH5FDeCDnwsARMREREFGWYAfezS7x0EgJUrV978gRAREfmLj74JhAnAG4cBIBEREfkUpwAGPpaAiYiIiIIMM4BERETkW0wBBjxmAImIiIiCDDOARERE5FPcBibwMQAkIiIinxJ8tArYJyuJqUksARMREREFGWYAiYiIyKe4BiTwMQAkIiIi32IEGPBYAiYiIiIKMswAEhERkU9xFXDgYwBIREREPsVVwIGPJWAiIiKiIMMMIBEREfkU14AEPmYAiYiIiIIMM4BERETkW0wBBjwGgERERORTXAUc%2BFgCJiIiIgoyzAASERGRT3EbmMDHAJCIiIh8ilMAAx9LwERERERBhhlAIiIi8i2mAAMeA0AiIiLyKa4CDnwsARMREREFGWYAiYiIyKe4CjjwMQNIREREFGSYASQiIiKf4hqQwMcAkIiIiHyLEWDAYwmYiIiIKMgwA0hEREQ%2BxW1gAh8DQCIiIvIprgIOfCwBExEREQUZZgCJiIjIp7gGJPAxACQiIiLfYgQY8FgCJiIiIgoyzAASERGRT3EVcOBjBpCIiIgoyDADSERERL7lo21gmAC8cRgAEhERkU9xDUjgYwmYiIiIKMgwA0hERES%2BxRRgwGMASERERD7FVcCBjyVgIiIioiDDDCARERH5lOCjVcA%2BWUlMTWIASERERD7FKYCBjyVgIiIioiDDDCARERH5FlOAAY8ZQCIiIqIgwwwgERER%2BRS3gQl8DACJiIjIpwT4aBXw9XdBzWAJmIiIiCjIMANIREREPsU1IIGPASARERH5FDeCDnwsARMREREFGWYAiYiIyMdYBA50DACJiIjIp1gCDnwsARMREREFGWYAiYiIyKdYAA58zAASERERBRkGgERERORT5%2BcA%2BuLnSk2fPh0dO3ZEWFgYjEYj%2BvTpg8OHD3u1sVqtyMvLQ1RUFHQ6Hfr27YuysjKvNqdPn0avXr2g1WphNBoxbtw4OJ1OrzZbtmxBTk4OVCoV0tPTsWjRomt9q/yGASARERH5lODD/12p/Px85OXlYceOHdiwYQMcDgd69OgBi8UitRk1ahS%2B%2Buor/POf/0R%2Bfj6Ki4vxxBNPSOddLhd69eoFu92OH374AYsXL8aiRYswadIkqc2JEyfQq1cvdOvWDfv27cPIkSMxZMgQfP311755824SQRRF0d%2BDoAvq6upgMBiw90gJdGF6fw%2BHKCAV1TT4ewhEActiNuHRjqmora2FXn9zP0fOf4YdOX0WYT64t6muDrclR1/Ts1RUVMBoNCI/Px/33nsvamtrERMTg6VLl%2BIPf/gDAOCXX35BZmYmtm/fjs6dO%2BNf//oXevfujeLiYsTGxgIAPvjgA0yYMAEVFRVQKpWYMGEC1q5diwMHDkj36t%2B/P2pqarB%2B/frrfuabhRlAIiIi8i3Bhz/wBJYX/9hstt8cQm1tLQAgMjISALB37144HA48%2BOCDUps2bdogOTkZ27dvBwBs374dt99%2BuxT8AUDPnj1RV1eHgwcPSm0u7uN8m/N93CoYABIREZFP%2BTj%2BQ1JSEgwGg/Qzffr0y97f7XZj5MiR6NKlC9q1awcAKC0thVKpRHh4uFfb2NhYlJaWSm0uDv7Onz9/7nJt6urq0NBw61QnuA0MERERBbTCwkKvErBKpbps%2B7y8PBw4cABbt2690UO7ZTEAJCIiIp/y9TeB6PX6K54DOHz4cKxZswbfffcdEhMTpeNxcXGw2%2B2oqanxygKWlZUhLi5OarNr1y6v/s6vEr64zaUrh8vKyqDX66HRaK7uAf2IJWAiIiLyKX%2BsAhZFEcOHD8eXX36JTZs2ITU11ev8nXfeCYVCgY0bN0rHDh8%2BjNOnTyM3NxcAkJubi59//hnl5eVSmw0bNkCv1yMrK0tqc3Ef59uc7%2BNWwQwgERER3fLy8vKwdOlSrFq1CmFhYdKcPYPBAI1GA4PBgMGDB2P06NGIjIyEXq/HiBEjkJubi86dOwMAevTogaysLAwYMAAzZ85EaWkpJk6ciLy8PKnsPHToUMydOxfjx4/H888/j02bNmH58uVYu3at3579WjAAJCIiIt/yw3fBvf/%2B%2BwCArl27eh1fuHAhBg0aBAB49913IZPJ0LdvX9hsNvTs2RPz58%2BX2srlcqxZswbDhg1Dbm4uQkNDMXDgQEybNk1qk5qairVr12LUqFGYPXs2EhMTsWDBAvTs2fOaH9MfuA9ggOE%2BgES/jfsAEjUvEPYBPF5U6bN9ANNaRPnlWf7TcQ4gERERUZBhCZiIiIh8ytergMn3mAEkIiIiCjLMABIREZGPXd0WLpfrh24MBoBERETkUywBBz6WgImIiIiCDANAIiIioiDDEjARERH5FEvAgY8ZQCIiIqIgwwwgERER%2BZTgo1XAvllJTE1hAEhEREQ%2BxRJw4GMJmIiIiCjIMANIREREPiXAN1s4MwF44zADSERERBRkmAEkIiIi32IKMOAxACQiIiKf4irgwMcSMBEREVGQYQaQiIiIfIrbwAQ%2BBoBERETkU5wCGPhYAiYiIiIKMswAEhERkW8xBRjwGAASERGRT3EVcOBjCZiIiIgoyDADGGBEUQQAmM0mP4%2BEKHBZzFZ/D4EoYNWf%2B/w4/3niDyZTnU9W8JpMddffCTWJAWCAMZk8v7j35dzm55EQEdGtzGQywWAw3NR7KpVKxMXFISM1yWd9xsXFQalU%2Bqw/8hBEf/4TgRpxu90oLi5GWFgYBG6AFBDq6uqQlJSEwsJC6PV6fw%2BHKODwdySwiKIIk8mEhIQEyGQ3f6aX1WqF3W73WX9KpRJqtdpn/ZEHM4ABRiaTITEx0d/DoCbo9Xp%2BuBFdBn9HAsfNzvxdTK1WM2C7BXARCBEREVGQYQBIREREFGQYABL9BpVKhcmTJ0OlUvl7KEQBib8jRLceLgIhIiIiCjLMABIREREFGQaAREREREGGASARERFRkGEASERERBRkGAASERERBRkGgERERERBhgEg0WV89tlnWLFihb%2BHQRTwuKMY0a2F3wVM1IyDBw9i5syZkMvlCAsLQ48ePfw9JKKAIIoi3G435HI5qqqqoFarodVq/T0sIroKzAASNWHcuHGYPHkyNBoNjh8/jpdeegnr1q3z97CI/GrdunXYv38/BEGAXC7Hl19%2BicceewwdOnTA1KlTUVBQ4O8hEtEV4jeBEF1i0aJFGDVqFDZu3IjU1FTYbDYMHDgQJpMJkyZNwkMPPeTvIRLddGVlZcjNzUXXrl3x2muvweFwIDc3F2PGjMHZs2fx/fffIzU1FSNHjsTvfvc7fw%2BXiH4DA0CiS0ycOBH5%2BfnIz88HAMhkMhQVFaFv376orKzEnDlzGARSUPrxxx/x4osvonPnzoiNjQXg%2BX0BgLVr12LWrFkwGAwYM2YMg0CiAMcSMNE55/8tpFKpYLVaYbfbIZPJ4HA40KJFC0yfPh3FxcV45513sGnTJj%2BPlujmy8nJwYcffohdu3ZhwYIFMJvN0rlevXph9OjRqKmpwezZs7F582Y/jpSIfgsDQKJzBEEAAPTp0wcFBQWYMWMGAEChUAAA7HY7f0bChwAABy5JREFUHn74YYiiiOnTp8PhcPhtrET%2BkpOTg48%2B%2BggymQxbt27FwYMHpXO9e/fGuHHjcOzYMXz88cdoaGjw40iJ6HLkU6ZMmeLvQRAFktjYWCQnJ2P8%2BPEwmUyIjIyE1WrF1KlTcffdd2PMmDEYO3Ys7r33XqSlpfl7uEQ3XWxsLLp164bly5fjzJkzSEtLg9FoBABkZGQgNTUV/fr1Q3R0tJ9HSkTN4RxAomasWLECf/7zn6FUKiGKIoxGI3744QeUlZWhe/fu%2BPzzz5Gdne3vYRL5TUFBAYYMGYKcnByMGjUKWVlZ/h4SEV0hBoBEl1FUVITCwkI4HA506dIFMpkMr776KlauXInNmzcjLi7O30Mk8quCggIMHToUaWlpmDx5Mtq0aePvIRHRFWAASHSFDh48iBkzZmDdunX49ttv0b59e38PiSgg7N69G%2BPGjcOyZcsQHx/v7%2BEQ0RXgN4EQXQGn0wm73Q6j0Yj8/Hy0bdvW30MiChgdO3bE%2BvXroVar/T0UIrpCzAASXQWHwyGtCiYiIrpVMQAkIiIiCjLcB5CIiIgoyDAAJCIiIgoyDACJiIiIggwDQCIiIqIgwwCQiIiIKMgwACQinzt58iQEQcC%2BffsAAFu2bIEgCKipqbnpY%2BnatStGjhzZ7PkpU6Zc9abegiBg5cqV1zWuQYMGoU%2BfPtfVBxHRtWIASBQkBg0aBEEQIAgClEol0tPTMW3aNDidzht%2B73vuuQclJSUwGAxX1P63gjYiIro%2B/CYQoiDy0EMPYeHChbDZbFi3bh3y8vKgUCjw6quvNmrrcrkgCAJksuv/d6JSqeT3JhMRBRBmAImCiEqlQlxcHFJSUjBs2DA8%2BOCDWL16NQBg0aJFCA8Px%2BrVq5GVlQWVSoXTp08DABYsWIDMzEyo1Wq0adMG8%2BfP9%2Bp3165d6NChA9RqNe666y4UFBR4nW%2BqBLxt2zZ07doVWq0WERER6NmzJ6qrqzFo0CDk5%2Bdj9uzZUsby5MmTAIADBw7g4Ycfhk6nQ2xsLAYMGICzZ89KfVosFvzxj3%2BETqdDfHw8Zs2addXv0e7du9G9e3dER0fDYDDgvvvuw48//tioXUlJCR5%2B%2BGFoNBqkpaXh888/9zpfWFiIfv36ITw8HJGRkXj88cel5yAi8jcGgERBTKPRwG63S6/r6%2BsxY8YMLFiwAAcPHoTRaMSSJUswadIkvPXWWzh06BDefvttvP7661i8eDEAwGw2o3fv3sjKysLevXsxZcoUjB079rL33bdvHx544AFkZWVh%2B/bt2Lp1Kx599FG4XC7Mnj0bubm5eOGFF1BSUoKSkhIkJSWhpqYG999/Pzp06IA9e/Zg/fr1KCsrQ79%2B/aR%2Bx40bh/z8fKxatQrffPMNtmzZ0mTwdjkmkwkDBw7E1q1bsWPHDmRkZOCRRx6ByWTyavf666%2Bjb9%2B%2B2L9/P5599ln0798fhw4dAuD5ysCePXsiLCwM33//PbZt2wadToeHHnrI6/0mIvIbkYiCwsCBA8XHH39cFEVRdLvd4oYNG0SVSiWOHTtWFEVRXLhwoQhA3Ldvn9d1rVq1EpcuXep17I033hBzc3NFURTFDz/8UIyKihIbGhqk8%2B%2B//74IQCwoKBBFURQ3b94sAhCrq6tFURTFp59%2BWuzSpUuzY73vvvvEl19%2BudE9e/To4XWssLBQBCAePnxYNJlMolKpFJcvXy6dr6ysFDUaTaO%2BLjZ58mTxjjvuaPa8y%2BUSw8LCxK%2B%2B%2Bko6BkAcOnSoV7tOnTqJw4YNE0VRFP/%2B97%2BLrVu3Ft1ut3TeZrOJGo1G/Prrr0VR9P7zICK62TgHkCiIrFmzBjqdDg6HA263G8888wymTJkinVcqlcjOzpZeWywWHDt2DIMHD8YLL7wgHXc6ndKCjkOHDiE7OxtqtVo6n5ube9lx7Nu3D08%2B%2BeRVjX3//v3YvHkzdDpdo3PHjh1DQ0MD7HY7OnXqJB2PjIxE69atr%2Bo%2BZWVlmDhxIrZs2YLy8nK4XC7U19dL5fDzLn3G3NxcadXz/v37cfToUYSFhXm1sVqtOHbs2FWNh4joRmAASBREunXrhvfffx9KpRIJCQkICfH%2BK0Cj0UAQBOm12WwGAHz00UdegRUAyOXyax6HRqO56mvMZjMeffRRzJgxo9G5%2BPh4HD169JrHc7GBAweisrISs2fPRkpKClQqFXJzc6%2BqdGs2m3HnnXdiyZIljc7FxMT4ZJxERNeDcwCJgkhoaCjS09ORnJzcKPhrSmxsLBISEnD8%2BHGkp6d7/aSmpgIAMjMz8dNPP8FqtUrX7dix47L9ZmdnY%2BPGjc2eVyqVcLlcXsdycnJw8OBBtGzZstFYQkND0apVKygUCuzcuVO6prq6GkeOHPnN57zYtm3b8NJLL%2BGRRx5B27ZtoVKpvBaaNPeMO3bsQGZmpjTWX3/9FUajsdFYr3QrHCKiG%2Bn/A6yewjfiUG4iAAAAAElFTkSuQmCC'
p110
sS'plot1'
p111
S'data:image/png;base64,iVBORw0KGgoAAAANSUhEUgAAAoAAAAHgCAYAAAA10dzkAAAABHNCSVQICAgIfAhkiAAAAAlwSFlzAAAPYQAAD2EBqD%2BnaQAAIABJREFUeJzs3XucTfX%2Bx/H33sNcGvYeRnP7NZjQRJFQTO6ZTKIo1JQ0Oi6pUSEp0hi6CLlGpHJJVLqQKPdqThmX3IlBCedkRjEzm2EuZvbvD80%2BdjOKrG3vsV/PHuvxs7/ru7/ru/Y55%2BfT57O%2B32Wy2%2B12AQAAwGuY3T0BAAAAXF4EgAAAAF6GABAAAMDLEAACAAB4GQJAAAAAL0MACAAA4GUIAAEAALwMASAAAICXIQAEAADwMgSAAAAAXoYAEAAAwMsQAAIAAHgZAkAAAAAvQwAIAADgZQgAAfylffv2qW3btrJarTKZTFq0aJGh4//yyy8ymUyaPXu2oeNeCapXr64ePXq4exoArkAEgEAZ8NNPP%2Bmxxx7TtddeK39/f1ksFjVt2lSTJk3S6dOnXXrthIQE7dixQ6%2B88ormzp2rRo0aufR6V6Iff/xRycnJ%2BuWXX9w9FQCQJJnsdrvd3ZMAcH5Lly5V165d5efnp0ceeUQ33nij8vPz9d133%2BnTTz9Vjx49NGPGDJdc%2B/Tp07rqqqv0wgsv6OWXX3bJNex2u/Ly8lS%2BfHn5%2BPi45Bru9sknn6hr1676%2Buuv1apVqwv%2BXl5ensxms8qXL%2B%2B6yQHwSuXcPQEA53fgwAHFx8erWrVqWrNmjcLDwx3nEhMTtX//fi1dutRl1//tt98kSUFBQS67hslkkr%2B/v8vGL2vsdrtyc3MVEBAgPz8/d08HwBWKEjDgwcaMGaOTJ0/q3XffdQr%2BitWsWVNPP/204/OZM2f00ksvqUaNGvLz81P16tU1dOhQ5eXlOX2vevXq6tChg7777jvdeuut8vf317XXXqv33nvP0Sc5OVnVqlWTJD377LMymUyqXr26JKlHjx6OP58rOTlZJpPJqW3lypVq1qyZgoKCVKFCBUVHR2vo0KGO8%2Bd7BnDNmjVq3ry5AgMDFRQUpI4dO2r37t2lXm///v3q0aOHgoKCZLVa9eijj%2BrUqVPn/2H/0KpVK914443avn27WrZsqauuuko1a9bUJ598Ikn69ttv1bhxYwUEBCg6OlqrVq1y%2Bv7Bgwf1xBNPKDo6WgEBAQoODlbXrl2dSr2zZ89W165dJUmtW7eWyWSSyWTSN998I%2Bl//1ksX75cjRo1UkBAgN566y3HueJnAO12u1q3bq2rr75aR48edYyfn5%2BvunXrqkaNGsrJyfnbewYAiQAQ8GhffPGFrr32Wt12220X1L9Xr15KSkpSgwYNNGHCBLVs2VKjRo1SfHx8ib779%2B9Xly5ddMcdd2jcuHGqVKmSevTooV27dkmS7rvvPk2YMEGS9OCDD2ru3LmaOHHiRc1/165d6tChg/Ly8jRy5EiNGzdO99xzj77//vu//N6qVasUFxeno0ePKjk5WQMHDtTatWvVtGnTUp%2Bju//%2B%2B3XixAmNGjVK999/v2bPnq0RI0Zc0BwzMzPVoUMHNW7cWGPGjJGfn5/i4%2BP10UcfKT4%2BXnfddZdee%2B015eTkqEuXLjpx4oTjuxs3btTatWsVHx%2BvyZMnq2/fvlq9erVatWrlCEBbtGihp556SpI0dOhQzZ07V3PnzlXt2rUd46SlpenBBx/UHXfcoUmTJql%2B/fol5mkymTRz5kzl5uaqb9%2B%2Bjvbhw4dr165dmjVrlgIDAy/ongFAdgAeKTs72y7J3rFjxwvqv3XrVrske69evZzaBw0aZJdkX7NmjaOtWrVqdkn2lJQUR9vRo0ftfn5%2B9meeecbRduDAAbsk%2B9ixY53GTEhIsFerVq3EHIYPH24/9/%2BtTJgwwS7J/ttvv5133sXXmDVrlqOtfv369pCQEPuxY8ccbdu2bbObzWb7I488UuJ6//rXv5zGvPfee%2B3BwcHnvWaxli1b2iXZ58%2Bf72jbs2ePXZLdbDbb161b52hfvnx5iXmeOnWqxJipqal2Sfb33nvP0fbxxx/bJdm//vrrEv2L/7NYtmxZqecSEhKc2t566y27JPv7779vX7dund3Hx8fev3//v71XADgXGUDAQ9lsNklSxYoVL6j/l19%2BKUkaOHCgU/szzzwjSSWeFaxTp46aN2/u%2BHz11VcrOjpaP//88z%2Be858VPzv4%2Beefq6io6IK%2Bc%2BTIEW3dulU9evRQ5cqVHe316tXTHXfc4bjPc52bEZOk5s2b69ixY47f8K9UqFDBKUMaHR2toKAg1a5dW40bN3a0F//53N8nICDA8eeCggIdO3ZMNWvWVFBQkDZv3nwBd3tWVFSU4uLiLqhvnz59FBcXpyeffFLdu3dXjRo19Oqrr17wtQBAogQMeCyLxSJJTiXHv3Lw4EGZzWbVrFnTqT0sLExBQUE6ePCgU3vVqlVLjFGpUiVlZmb%2BwxmX9MADD6hp06bq1auXQkNDFR8frwULFvxlMFg8z%2Bjo6BLnateurd9//73Es25/vpdKlSpJ0gXdyzXXXFPiuUWr1arIyMgSbX8e8/Tp00pKSlJkZKT8/PxUpUoVXX311crKylJ2dvbfXrtYVFTUBfeVpHfffVenTp3Svn37NHv2bKdAFAAuBAEg4KEsFosiIiK0c%2BfOi/ren4OZ8znfliv2C9gZ6nzXKCwsdPocEBCglJQUrVq1St27d9f27dv1wAMP6I477ijR91Jcyr2c77sXMuaTTz6pV155Rffff78WLFigFStWaOXKlQoODr7gjKekiw7gvvnmG8fCnh07dlzUdwFAIgAEPFqHDh30008/KTU19W/7VqtWTUVFRdq3b59Te0ZGhrKyshwreo1QqVIlZWVllWj/c5ZRksxms9q0aaPx48frxx9/1CuvvKI1a9bo66%2B/LnXs4nmmpaWVOLdnzx5VqVLFYxY7fPLJJ0pISNC4ceMcC2qaNWtW4re50KD8Qhw5ckRPPvmk2rZtqw4dOmjQoEGl/u4A8FcIAAEPNnjwYAUGBqpXr17KyMgocf6nn37SpEmTJEl33XWXJJVYqTt%2B/HhJUvv27Q2bV40aNZSdna3t27c72o4cOaKFCxc69Tt%2B/HiJ7xavcP3z1jTFwsPDVb9%2Bfc2ZM8cpkNq5c6dWrFjhuE9P4OPjUyLL%2BMYbb5TIbhYHrKUFzRerd%2B/eKioq0rvvvqsZM2aoXLly6tmz5wVlOwGgGBtBAx6sRo0amj9/vh544AHVrl3b6U0ga9eu1ccff%2BzYJ%2B6mm25SQkKCZsyYoaysLLVs2VIbNmzQnDlz1KlTJ7Vu3dqwecXHx%2Bu5557Tvffeq6eeekqnTp3StGnTdN111zktfhg5cqRSUlLUvn17VatWTUePHtWbb76pa665Rs2aNTvv%2BGPHjlW7du0UExOjnj176vTp03rjjTdktVqVnJxs2H1cqg4dOmju3LmyWq2qU6eOUlNTtWrVKgUHBzv1q1%2B/vnx8fDR69GhlZ2fLz89Pt99%2Bu0JCQi7qerNmzdLSpUs1e/ZsXXPNNZLOBpwPP/ywpk2bpieeeMKwewNwZSMABDzcPffco%2B3bt2vs2LH6/PPPNW3aNPn5%2BalevXoaN26cevfu7ej7zjvv6Nprr9Xs2bO1cOFChYWFaciQIRo%2BfLihcwoODtbChQs1cOBADR48WFFRURo1apT27dvnFADec889%2BuWXXzRz5kz9/vvvqlKlilq2bKkRI0Y4FlWUJjY2VsuWLdPw4cOVlJSk8uXLq2XLlho9evRFL5hwpUmTJsnHx0fz5s1Tbm6umjZt6tjD8FxhYWGaPn26Ro0apZ49e6qwsFBff/31RQWA//nPfzRgwADdfffdSkhIcLR369ZNn376qQYPHqx27dp51O8DwHPxLmAAAAAvwzOAAAAAXoYAEAAAwMsQAAIAAHgZAkAAAAAvQwAIAADgZQgAAQAAvAz7AHqYoqIi/frrr6pYsaKhr48CAHgHu92uEydOKCIiQmbz5c/z5ObmKj8/37DxfH195e/vb9h4OIsA0MP8%2BuuvioyMdPc0AABl3OHDhx1vjLlccnNzFVAxWDpzyrAxw8LCdODAAYJAgxEAepiKFStKknzrJMjk4%2Bvm2QCe6dA3r7t7CoDHOmGzqWZUpOPvk8spPz9fOnNKfnUSJCP%2BDivMV/qPc5Sfn08AaDACQA9TXPY1%2BfgSAALnYbFY3D0FwOO59TGicv6G/B1mN7FUwVX4ZQEAALwMGUAAAGAskyQjMpCshXQZMoAAAABehgwgAAAwlsl89jBiHLgEASAAADCWyWRQCZgasKsQWgMAAHgZMoAAAMBYlIA9HgEgAAAwFiVgj0doDQAA4GXIAAIAAIMZVAImT%2BUyBIAAAMBYlIA9HqE1AACAlyEDCAAAjMUqYI/HLwsAAOBlyAACAABj8QygxyMABAAAxqIE7PH4ZQEAALwMGUAAAGAsSsAejwAQAAAYixKwx%2BOXBQAA8DJkAAEAgLFMJoMygJSAXYUAEAAAGMtsOnsYMQ5cghIwAACAlyEDCAAAjMUiEI/HLwsAAOBlyAACAABjsQ%2BgxyMABAAAxqIE7PH4ZQEAALwMGUAAAGAsSsAejwAQAAAYixKwx%2BOXBQAA8DJkAAEAgLEoAXs8AkAAAGAsSsAej18WAADAy5ABBAAAxqIE7PEIAAEAgMEMKgFTqHQZflkAAAAvQwAIAACMVVwCNuK4CCkpKbr77rsVEREhk8mkRYsWOZ232%2B1KSkpSeHi4AgICFBsbq3379jn1OX78uLp16yaLxaKgoCD17NlTJ0%2BedOqzfft2NW/eXP7%2B/oqMjNSYMWNKzOXjjz/W9ddfL39/f9WtW1dffvnlRd2LqxEAAgCAK0JOTo5uuukmTZ06tdTzY8aM0eTJkzV9%2BnStX79egYGBiouLU25urqNPt27dtGvXLq1cuVJLlixRSkqK%2BvTp4zhvs9nUtm1bVatWTZs2bdLYsWOVnJysGTNmOPqsXbtWDz74oHr27KktW7aoU6dO6tSpk3bu3Om6m79IJrvdbnf3JPA/NptNVqtVfnV7y%2BTj6%2B7pAB4pc%2BMUd08B8Fg2m02hwVZlZ2fLYrFc9mtbrVb5tR0jU/mASx7PXnBaeSsG/6N7MZlMWrhwoTp16nR2LLtdEREReuaZZzRo0CBJUnZ2tkJDQzV79mzFx8dr9%2B7dqlOnjjZu3KhGjRpJkpYtW6a77rpL//nPfxQREaFp06bphRdeUHp6unx9z/49/fzzz2vRokXas2ePJOmBBx5QTk6OlixZ4phPkyZNVL9%2BfU2fPv2SfxcjkAEEAADGKt4H0IjDIAcOHFB6erpiY2MdbVarVY0bN1ZqaqokKTU1VUFBQY7gT5JiY2NlNpu1fv16R58WLVo4gj9JiouLU1pamjIzMx19zr1OcZ/i63gCVgEDAACPZrPZnD77%2BfnJz8/vosZIT0%2BXJIWGhjq1h4aGOs6lp6crJCTE6Xy5cuVUuXJlpz5RUVElxig%2BV6lSJaWnp//ldTwBGUAAAGAsgxeBREZGymq1Oo5Ro0a5%2BQbLPjKAAADAWAa/Cu7w4cNOzwBebPZPksLCwiRJGRkZCg8Pd7RnZGSofv36jj5Hjx51%2Bt6ZM2d0/Phxx/fDwsKUkZHh1Kf489/1KT7vCcgAAgAAj2axWJyOfxIARkVFKSwsTKtXr3a02Ww2rV%2B/XjExMZKkmJgYZWVladOmTY4%2Ba9asUVFRkRo3buzok5KSooKCAkeflStXKjo6WpUqVXL0Ofc6xX2Kr%2BMJCAABAICx3LQP4MmTJ7V161Zt3bpV0tmFH1u3btWhQ4dkMpnUv39/vfzyy1q8eLF27NihRx55RBEREY6VwrVr19add96p3r17a8OGDfr%2B%2B%2B/Vr18/xcfHKyIiQpL00EMPydfXVz179tSuXbv00UcfadKkSRo4cKBjHk8//bSWLVumcePGac%2BePUpOTtYPP/ygfv36GfQDXzpKwAAAwFgGl4Av1A8//KDWrVs7PhcHZQkJCZo9e7YGDx6snJwc9enTR1lZWWrWrJmWLVsmf39/x3fmzZunfv36qU2bNjKbzercubMmT57sOG%2B1WrVixQolJiaqYcOGqlKlipKSkpz2Crzttts0f/58DRs2TEOHDlWtWrW0aNEi3Xjjjf/0lzAc%2BwB6GPYBBP4e%2BwAC5%2BcR%2BwC2n2zcPoBLn3LLvVzpyAACAABj/YPy7XnHgUvwDCAAAICXIQMIAAAMZTKZZCID6NEIAAEAgKEIAD0fJWAAAAAvQwYQAAAYy/THYcQ4cAkCQAAAYChKwJ6PEjAAAICXIQMIAAAMRQbQ8xEAAgAAQxEAej5KwAAAAF6GDCAAADAUGUDPRwYQAADAy5ABBAAAxmIfQI9HAAgAAAxFCdjzUQIGAADwMmQAAQCAoUwmGZQBvPQhUDoCQAAAYCiTDCoBEwG6DCVgAAAAL0MGEAAAGIpFIJ6PABAAABiLbWA8HiVgAAAAL0MGEAAAGMugErCdErDLkAEEAADwMmQAAQCAoYxaBGLMVjIoDQEgAAAwFAGg56MEDAAA4GXIAAIAAGOxDYzHIwAEAACGogTs%2BSgBAwAAeBkygAAAwFBkAD0fASAAADAUAaDnowQMAADgZcgAAgAAQ5EB9HxkAAEAALwMGUAAAGAs9gH0eASAAADAUJSAPR8lYAAAAC9DBhAAABiKDKDnIwAEAACGIgD0fJSAccVp2qCGPpn4mH5e8YpOb5miu1vVczrf8fab9MWbifrP16N1essU1bvu/0qM4edbThOev1//%2BXq0fvt%2BnD54vZdCKld06tOwTlV9Of1JHUkZo1%2B/HaPFUxNV95yxmjespQUT%2BujnFa/o97XjtO7D5xXfrpFrbhq4RN/9O0WdO92tqKoRCihv0uLPFznOFRQU6IUhz6lR/boKtgYqqmqEevZ4RL/%2B%2BqvTGNE1qyugvMnpGDvmNac%2BO7ZvV5tWzRVUwV81oyI17vUxl%2BX%2BADgjAMQVJzDATzv2/lf9R31U6vmrAny1dutPGjZ5UannJWnMoM5q3%2BJGdRv8rtr2mqjwq636cFyvc67hq8%2BnJupweqZadH9dbR4dr5OncrV4aqLKlTv7P6smN0Vp577/6qFn39Et94/S3M/X6Z2XHlG75jcae8OAAXJyclS33k2aOHlqiXOnTp3S1i2b9fwLLyp1w2Z9uOAz7d2bpq733lOib1LySB04fMRxPJH4pOOczWbT3Xe1VdWq1bR2/Sa9%2BtpYvTIyWe%2B%2BPcOl9wY3MBl4wCUoAeOKs%2BL7H7Xi%2Bx/Pe/6DpRslSVXDK5d63lLBXz06xajH0Nn6duNeSVKf4e9r28IXdWvd6tqw4xdFR4UpOChQL01bov9kZEmSXnnrK/3w8VBVDa%2Bsnw//rrEzVziNO/WDb9Qm5np1vP0mffXvnUbcKmCYuDvbKe7OdqWes1qtWrpspVPbhElT1Py2W3Xo0CFVrVrV0V6hQkWFhYWVOs6H8%2BcpPz9fb70zU76%2Bvqpzww3avm2rJk8ar569%2Bxh3M3A7SsCejwwg8Cc3164q3/LltGZdmqNt7y8ZOnTkuBrXi3J8/j3zpBI63aby5Xzk71dePTrFaPfPR3Tw1%2BPnHdtaIUCZtlMuvwfA1Wy2bJlMJgUFBTm1jxv7mv4vNFhNGt2s8ePG6syZM45z69elqmnzFvL19XW03dE2TnvT0pSZmXnZ5g6ADCBQQliwRXn5Bco%2Bedqp/egxm0KDLZKkk6fyFNd7khaM76Mhve%2BUJO0/dFT3JE5VYWFRqeN2vuNmNbyhqvq9/IFrbwBwsdzcXA0b8pzuf%2BBBWSwWR/sTiU/p5gYNVKlSZa1LXaukYUOUfuSIxrw%2BXpKUkZGu6tWjnMYKCQk9ey49XZUqVbp8NwGXIgPo%2BQgAgX/A36%2B8pg/vptRtPythyCz5%2BJjV/5E2%2Bmzy42r28Fjl5hU49W/RqJbeGvGwnnjpA%2B3%2BOd1NswYuXUFBgR5%2B8H7Z7XZNnjrN6dzTAwY6/ly3Xj35%2Bvqq3xOP6aVXRsnPz%2B9yTxXAX6AEDPxJ%2BjGb/HzLy1ohwKk9JNiijGM2SdID7RqpakRl9Rn%2Bvjb9eEgbdvyihCGzVf3/gkusOm7WsKY%2BndRXg1//TPOXbLhs9wEYraCgQN0evF%2BHDh7UkmUrnbJ/pbnl1sY6c%2BaMDv7yiyQpNDRMGUcznPoc/eNz6HmeG0TZZJLJkQW8pINVIC5DAGiwEydOqFu3bgoMDFR4eLgmTJigVq1aqX///u6eGi7Qlt2HlF9wRq0bRzvaalULUdXwylq//YAk6Sp/XxUV2WW32x19iux22e2S%2BZySRfOGtbRw8uMaNulzzfzs%2B8t3E4DBioO/n/bv09LlqxQcHPy339m2bavMZrOuDgmRJDVuEqPv/52igoL/ZchXr1qp66KjKf9eYQwJ/gwqI6N0lIANNnDgQH3//fdavHixQkNDlZSUpM2bN6t%2B/frunprXCAzwVY3Iqx2fq/9fsOpd93/KtJ3S4fRMVbJcpciwSgoPsUqSrqv%2BxzNIx2zKOHZCtpO5mr0oVaOfuU/Hs3N0IidX45/rqnXbftaGHb9Iklav26NX%2B3fSxCH3a9qH38psMmnQo211prBQ3/5wduVwi0a19Nnkvpo6/xstWr1FocFn9xHMLyhkIQg8zsmTJ/XT/v2Oz78cOKBtW7eqUuXKCg8P10MPdNGWLZv12aIlKiwsVHr62UcZKleuLF9fX61LTdXGDevVslVrVaxYUevWpeq5QQP04EMPO4K7Bx58SK%2B%2BPEJ9e/fUM88%2Bp127dmrqG5M05vUJbrlnwJuZ7OemMHBJTpw4oeDgYM2fP19dunSRJGVnZysiIkK9e/fWxIkTS3wnLy9PeXl5js82m02RkZHyq9tbJh/fEv3x95o3rKUV7zxdon3u4nXqM/x9PXx3Y709snuJ8y9P/1KvvPWlpLMbQb828D7df2dD%2BfmW06q1u/X0qI%2BUceyEo//tja/XC4%2B1U52a4Soqsmvbnv8oeeoXjiBxxoiH1f2eJiWuk/LDPsX1nmTQ3XqnzI1T3D2FK07Kt98oLrZ1ifaHuydoWFKyrq8VVcq3pOWrvlaLlq20ZfNmPf3kE9qbtkd5eXmqHhWlh7p111P9Bzo9/7dj%2B3b1fypRm37YqOAqVfR44pMa9OxzLrsvb2Sz2RQabFV2dvbfluldcW2r1aqqjy%2BQ2e%2BqSx6vKO%2BUDk273y33cqUjADTQtm3bVL9%2BfR08eNBpX6wGDRqoRYsWpQaAycnJGjFiRIl2AkDg/AgAgfPzhACw2hMfGxYAHnyzKwGgC/AMoJsNGTJE2dnZjuPw4cPunhIAALjCEQAa6Nprr1X58uW1ceNGR1t2drb27t173u/4%2BfnJYrE4HQAAlGUsAvF8LAIxUMWKFZWQkKBnn31WlStXVkhIiIYPHy6z2cx/iQEAXsNkOnsYMQ5cgwygwcaPH6%2BYmBh16NBBsbGxatq0qWrXri1/f393Tw0AAEASAaDhKlasqHnz5iknJ0dHjhxRnz59lJaWppo1a7p7agAAXBZnM4BGlIDdfSdXLkrABtuyZYv27NmjW2%2B9VdnZ2Ro5cqQkqWPHjm6eGQAAwFkEgC7w%2BuuvKy0tTb6%2BvmrYsKH%2B/e9/q0qVKu6eFgAAl4dBzwDyJjjXIQA02M0336xNmza5exoAALiNUSt4WUDpOjwDCAAA4GXIAAIAAEOxDYznIwAEAACGMptNMpsvPXqzGzAGSkcJGAAAwMuQAQQAAIaiBOz5CAABAIChWAXs%2BSgBAwAAeBkygAAAwFCUgD0fGUAAAAAvQwYQAAAYimcAPR8BIAAAMBQBoOejBAwAAOBlCAABAIChiheBGHFcqMLCQr344ouKiopSQECAatSooZdeekl2u93Rx263KykpSeHh4QoICFBsbKz27dvnNM7x48fVrVs3WSwWBQUFqWfPnjp58qRTn%2B3bt6t58%2Bby9/dXZGSkxowZc0m/lzsQAAIAAEOZZHKUgS/p0IVHgKNHj9a0adM0ZcoU7d69W6NHj9aYMWP0xhtvOPqMGTNGkydP1vTp07V%2B/XoFBgYqLi5Oubm5jj7dunXTrl27tHLlSi1ZskQpKSnq06eP47zNZlPbtm1VrVo1bdq0SWPHjlVycrJmzJhhzI93mfAMIAAAKPPWrl2rjh07qn379pKk6tWr64MPPtCGDRsknc3%2BTZw4UcOGDVPHjh0lSe%2B9955CQ0O1aNEixcfHa/fu3Vq2bJk2btyoRo0aSZLeeOMN3XXXXXr99dcVERGhefPmKT8/XzNnzpSvr69uuOEGbd26VePHj3cKFD0dGUAAAGAoo0vANpvN6cjLyytxzdtuu02rV6/W3r17JUnbtm3Td999p3bt2kmSDhw4oPT0dMXGxjq%2BY7Va1bhxY6WmpkqSUlNTFRQU5Aj%2BJCk2NlZms1nr16939GnRooV8fX0dfeLi4pSWlqbMzExjf0gXIgMIAAAMZfQq4MjISKf24cOHKzk52ant%2Beefl81m0/XXXy8fHx8VFhbqlVdeUbdu3SRJ6enpkqTQ0FCn74WGhjrOpaenKyQkxOl8uXLlVLlyZac%2BUVFRJcYoPlepUqV/eruXFQEgAADwaIcPH5bFYnF89vPzK9FnwYIFmjdvnubPn%2B8oy/bv318RERFKSEi4nNMtEwgAAQCAoYx%2BFZzFYnEKAEvz7LPP6vnnn1d8fLwkqW7dujp48KBGjRqlhIQEhYWFSZIyMjIUHh7u%2BF5GRobq168vSQoLC9PRo0edxj1z5oyOHz/u%2BH5YWJgyMjKc%2BhR/Lu5TFvAMIAAAKPNOnTols9k5rPHx8VFRUZEkKSoqSmFhYVq9erXjvM1m0/r16xUTEyNJiomJUVZWljZt2uTos2bNGhUVFalx48aOPikpKSooKHD0WblypaKjo8tM%2BVciAAQAAAYzZAuYi3yO8O6779Yrr7yipUuX6pdfftHChQs1fvx43XvvvY459e/fXy%2B//LIWL16sHTt26JFHHlFERIQ6deokSapdu7buvPNO9e7dWxs2bND333%2Bvfv36KT4%2BXhEREZKkhx4/kPe9AAAgAElEQVR6SL6%2BvurZs6d27dqljz76SJMmTdLAgQON/yFdiBIwAAAwlNEl4Avxxhtv6MUXX9QTTzyho0ePKiIiQo899piSkpIcfQYPHqycnBz16dNHWVlZatasmZYtWyZ/f39Hn3nz5qlfv35q06aNzGazOnfurMmTJzvOW61WrVixQomJiWrYsKGqVKmipKSkMrUFjCSZ7OdukQ23s9lsslqt8qvbWyYf37//AuCFMjdOcfcUAI9ls9kUGmxVdnb23z4354prW61WNXhxiXz8Ay95vMLcHG1%2BqYNb7uVKRwYQAAAYyuhtYGA8AkAAAGAsg0rAF/EmOFwkFoEAAAB4GTKAAADAUJSAPR8BIAAAMJQ7VgHj4lACBgAA8DJkAAEAgKEoAXs%2BMoAAAABehgwgAAAwFM8Aej4CQAAAYChKwJ6PEjAAAICXIQMIAAAMRQbQ8xEAAgAAQ/EMoOejBAwAAOBlyAACAABDUQL2fASAAADAUJSAPR8lYAAAAC9DBhAAABiKErDnIwAEAACGMsmgEvClD4HzoAQMAADgZcgAAgAAQ5lNJpkNSAEaMQZKRwYQAADAy5ABBAAAhmIbGM9HAAgAAAzFKmDPRwkYAADAy5ABBAAAhjKbzh5GjAPXIAAEAADGMhlUviUAdBlKwAAAAF6GDCAAADAUq4A9HwEgAAAwlOmPf4wYB65BCRgAAMDLkAEEAACGYhWw5yMDCAAA4GXIAAIAAEPxJhDPRwAIAAAMxSpgz%2Be1AeCKFSsuuG/btm1dOBMAAIDLy2sDwDvvvPOC%2BplMJhUWFrp4NgAAXDnMJpPMBqTvjBgDpfPaAPD06dPungIAAFckSsCez2sDQD8/v1Lbi4qKZDazOBoAAFy5iHR0NugbO3asatSoIX9/f/3888%2BSpBEjRui9995z8%2BwAAChbilcBG3HANQgAJY0ePVpTp07V0KFDVa7c/5Ki1113naZPn%2B7GmQEAUPYUl4CNOOAaBICSZs2apRkzZqhnz57y8fFxtNevX1979uxx48wAAACM57XPAJ7r8OHDuu6660o9l5eXd5lnAwBA2cYqYM9HBlBSdHS0UlNTS7QvXLhQ9erVc8OMAAAAXIcMoKRhw4bpscce09GjR1VUVKQvv/xSaWlpevvtt7Vw4UJ3Tw8AgDLF9MdhxDhwDQJASV26dFFQUJBGjBihcuXKqX///qpfv74%2B/vhjtWvXzt3TAwCgTOFdwJ6PAPAPsbGxio2NlSTZ7Xb%2BSwcAAK5YBIDn2Llzp3bv3i1JqlOnjm644QY3zwgAgLLHbDp7GDEOXIMAUFJ6erq6d%2B%2Bu1atXKyAgQJKUm5ur1q1ba%2B7cuQoPD3fzDAEAKDsoAXs%2BVgFL6tWrlzIzM7Vlyxbl5OQoJydHmzdvVnZ2tnr37u3u6QEAABiKDKCk1atX67vvvtNNN93kaLvpppv05ptvqmXLlm6cGQAAZRPJO89GACgpIiKi1HaTyaSwsLDLPBsAAMo2SsCejxKwpNdee01PPvmkdu7c6WjbuXOn%2Bvfvr9GjR7txZgAAAMbz2gxgeHi4079ZZGZm6qabbnIsAjl9%2BrR8fX319NNPq2vXru6aJgAAZQ6rgD2f1waAycnJ7p4CAACAW3htAPjYY4%2B5ewoAAFyReAbQ83ltAHg%2BRUVFOnPmjFObr6%2Bvm2YDAEDZw7uAPR%2BLQHT2eb9BgwapatWq8vX1VUBAgNMBAABwJSEAlDRkyBAtXrxYo0aNkq%2Bvr6ZOnaohQ4YoNDRUM2fOdPf0AAAoU8wmk2EHXIMSsKSFCxdq5syZatOmjfr27avY2FjVrFlTNWrU0KeffqqEhAR3TxEAgDLDZDJmI2jiP9chAyjp999/V61atSRJFotFmZmZkqRWrVrp66%2B/dufUAAAADEcAKCkqKkqHDh2SJEVHR%2Buzzz6TJC1fvlwWi8WdUwMAoMwpXgVsxAHXIACU1L17d23cuFGS9Oyzz2r8%2BPGyWCxKTEzU008/7ebZAQBQthSXgI044Bo8Ayjpueeec/y5Xbt22rlzpzZu3KiaNWvq1ltvdePMAAAAjEcAWIpatWo5ngkEAAAXx6gVvKwCdh2vDQBnzJhxwX379OnjwpkAAABcXl4bAA4fPvyC%2BplMJgJAAAAuAtvAeD6vDQCPHDni7ikAAHBF4l3Ans9rA0BPt/bTkapQkS1ogNKk7j/m7ikAHivn5Al3TwFlAAEgAAAwlFnG7DPHXnWuQwAIAAAMRQnY8xFcAwCAK8J///tfPfzwwwoODlZAQIDq1q2rH374wXHebrcrKSlJ4eHhCggIUGxsrPbt2%2Bc0xvHjx9WtWzdZLBYFBQWpZ8%2BeOnnypFOf7du3q3nz5vL391dkZKTGjBlzWe7PSASAAADAUCaTZDbguJgEYGZmppo2bary5cvrq6%2B%2B0o8//qhx48apUqVKjj5jxozR5MmTNX36dK1fv16BgYGKi4tTbm6uo0%2B3bt20a9curVy5UkuWLFFKSorTbiA2m01t27ZVtWrVtGnTJo0dO1bJyckXtb2cJ6AE/IcNGzZoxowZ%2BumnnzRv3jxFREToww8/VPXq1dWkSRN3Tw8AgDKjOIAzYpwLNXr0aEVGRmrWrFmOtqioKMef7Xa7Jk6cqGHDhqljx46SpPfee0%2BhoaFatGiR4uPjtXv3bi1btkwbN25Uo0aNJElvvPGG7rrrLr3%2B%2BuuKiIjQvHnzlJ%2Bfr5kzZ8rX11c33HCDtm7dqvHjx5epbePIAEpavHixWrZsqby8PKWmpjr%2BTeDo0aN6%2BeWX3Tw7AAC8m81mczry8vJK9Fm8eLEaNWqkrl27KiQkRDfffLPefvttx/kDBw4oPT1dsbGxjjar1arGjRsrNTVVkpSamqqgoCBH8CdJsbGxMpvNWr9%2BvaNPixYt5Ovr6%2BgTFxentLQ0ZWZmGn7vrkIAKGnEiBGaMmWK5s6dq/LlyzvamzVrpk2bNrlxZgAAlD3Fi0CMOCQpMjJSVqvVcYwaNarENX/%2B%2BWdNmzZNtWrV0vLly/X444/rqaee0pw5cyRJ6enpkqTQ0FCn74WGhjrOpaenKyQkxOl8uXLlVLlyZac%2BpY1x7jXKAkrAkvbs2aM2bdqUaA8KCipT0TwAAFeiw4cPy2L53964fn5%2BJfoUFRWpUaNGevXVVyVJN998s3bu3Knp06crISHhss21rCADKCkkJEQHDhwo0Z6amur0/AAAAPh7RiwAOfc5QovF4nSUFgCGh4erTp06Tm21a9fWoUOHJElhYWGSpIyMDKc%2BGRkZjnNhYWE6evSo0/kzZ87o%2BPHjTn1KG%2BPca5QFBICSHn30UfXv31/btm2TyWTSsWPH9Omnn2rQoEFl6oFOAAA8QfG7gI04LlTTpk2Vlpbm1LZ3715Vq1ZN0tkFIWFhYVq9erXjvM1m0/r16xUTEyNJiomJUVZWltPjX2vWrFFRUZEaN27s6JOSkqKCggJHn5UrVyo6OtppxbGnowQsadiwYSooKFBMTIxyc3PVpEkTlStXTk899ZQGDBjg7ukBAIC/MWDAAN1222169dVXdf/99zt29yjensVkMql///56%2BeWXVatWLUVFRenFF19URESEOnXqJOlsxvDOO%2B9U7969NX36dBUUFKhfv36Kj49XRESEJOmhhx7SiBEj1LNnTz333HPauXOnJk2apAkTJrjt3v8JAkBJZrNZL730kp5//nmlpaXp5MmTqlu3bpmK5AEA8BRmk0lmA97icTFj3HLLLVq4cKGGDBmikSNHKioqShMnTlS3bt0cfQYPHqycnBz16dNHWVlZatasmZYtWyZ/f39Hn3nz5qlfv35q06aNzGazOnfurMmTJzvOW61WrVixQomJiWrYsKGqVKmipKSkMlcxNNntdru7J4H/sdlsslqt2rT3iCpUtPz9FwAv9N%2Bs0%2B6eAuCxck6e0N23RCk7O9tp4cTlUPx32MCPN8nvqgqXPF7eqZMa37WhW%2B7lSkcGUNJdd931l%2Be//PLLyzQTAAAA1yMAlBwPiBYrKCjQ1q1btX//fj344INumhUAAGXTxS7g%2BKtx4BoEgJKmTZtWavvQoUNFhRwAgItjlkHPAIoI0FXYBuYvPProo06vkQEAALgSkAH8C5s3b3Z6NRwAAPh7lIA9HwGgzu7pcy673a4jR47o%2B%2B%2B/1%2BDBg900KwAAANcgAJRKPOdnNptVv359DRw4UPfcc4%2BbZgUAQNl07mvcLnUcuIbXB4CFhYUaMGCAoqOjZbVa3T0dAADKPJPp4jZx/qtx4BpevwjEx8dHzZs317Fjx9w9FQAAgMvC6wNASapTp44OHz7s7mkAAHBFKF4EYsQB1yAAlDRmzBgNGjRIq1atUmZmpvLz850OAABw4YqfATTigGt4/TOAkhQXF%2Bf0f/%2BssLDwck4HAADApQgAJX311VfungIAAFcM0x//GDEOXMOrA8CRI0dq0KBB5838AQCAi8c2MJ7Pq58BHDFihE6ePOnuaQAAAFxWXp0B/PMG0AAA4NKRAfR8Xp0BlCQTa8wBAICX8eoMoCRdd911fxsEHj9%2B/DLNBgCAss9kMhmSYCFJ4zpeHwCOGDGCV8ABAGAgSsCez%2BsDwPj4eIWEhLh7GgAAAJeNVweApJYBADCeUa9x469p1/HqAJBVwAAAGM9sMslsQPRmxBgonVcHgEVFRe6eAgAAwGXn1QEgAAAwHotAPB8BIAAAMJZBzwDyKmDX8fqNoAEAALwNGUAAAGAos0wyG5C%2BM2IMlI4MIAAAgJchAwgAAAzFPoCejwAQAAAYilXAno8SMAAAgJchAwgAAAzFm0A8HwEgAAAwFM8Aej5KwAAAAF6GDCAAADCUWQaVgNkH0GUIAAEAgKEoAXs%2BSsAAAABehgwgAAAwlFnGZJjIUrkOvy0AAICXIQMIAAAMZTKZZDLgAT4jxkDpCAABAIChTH8cRowD16AEDAAA4GXIAAIAAEPxKjjPRwAIAAAMR%2Bjm2SgBAwAAeBkygAAAwFC8CcTzEQACAABDsQ2M56MEDAAA4GXIAAIAAEPxKjjPRwAIAAAMRQnY8xFcAwAAeBkygAAAwFC8Cs7zkQEEAADwMmQAAQCAoXgG0PMRAAIAAEOxCtjz8dsCAAB4GTKAAADAUJSAPR8BIAAAMBSrgD0fJWAAAAAvQwYQAAAYymQ6exgxDlyDABAAABjKLJPMBhRwjRgDpaMEDAAA4GXIAAIAAENRAvZ8ZAABAAC8DBlAAABgKNMf/xgxDlyDABAAABiKErDnowQMAADgZcgAAgAAQ5kM2gaGErDrEAACAABDUQL2fJSAAQAAvAwBIAAAMFRxBtCI45967bXXZDKZ1L9/f0dbbm6uEhMTFRwcrAoVKqhz587KyMhw%2Bt6hQ4fUvn17XXXVVQoJCdGzzz6rM2fOOPX55ptv1KBBA/n5%2BalmzZqaPXv2P5%2BomxAAAgAAQ5kM/Oef2Lhxo9566y3Vq1fPqX3AgAH64osv9PHHH%2Bvbb7/Vr7/%2Bqvvuu89xvrCwUO3bt1d%2Bfr7Wrl2rOXPmaPbs2UpKSnL0OXDggNq3b6/WrVtr69at6t%2B/v3r16qXly5f/sx/LTQgAAQDAFePkyZPq1q2b3n77bVWqVMnRnp2drXfffVfjx4/X7bffroYNG2rWrFlau3at1q1bJ0lasWKFfvzxR73//vuqX7%2B%2B2rVrp5deeklTp05Vfn6%2BJGn69OmKiorSuHHjVLt2bfXr109dunTRhAkT3HK//xQBIAAAMJTZZNxxsRITE9W%2BfXvFxsY6tW/atEkFBQVO7ddff72qVq2q1NRUSVJqaqrq1q2r0NBQR5%2B4uDjZbDbt2rXL0efPY8fFxTnGKCtYBQwAADyazWZz%2Buzn5yc/P78S/T788ENt3rxZGzduLHEuPT1dvr6%2BCgoKcmoPDQ1Venq6o8%2B5wV/x%2BeJzf9XHZrPp9OnTCggIuMi7cw8ygAAAwFBGPwMYGRkpq9XqOEaNGlXimocPH9bTTz%2BtefPmyd/f/3LfcplDBhAAABjK6H0ADx8%2BLIvF4mgvLfu3adMmHT16VA0aNHC0FRYWKiUlRVOmTNHy5cuVn5%2BvrKwspyxgRkaGwsLCJElhYWHasGGD07jFq4TP7fPnlcMZGRmyWCxlJvsnkQGEF3hr8lh1vrO5bq4Zqpgbq%2BmJHg/o5/17Hef/c/igosMDSz2%2B%2BuKzEuNlHj%2BmFg1qKTo8ULbsLEf780/3KXWM9i0bXZb7BP6pzz%2BYqV4dW6hDo%2Brq0Ki6%2BsXfqfUpqxzn/3vogF7s94juvS1aHRpV14gBPXX896OljpWfn6fe97bS7bWraP/uHf9rz8vV6CH91POe5oq9MVQv9uvu8vvClcNisTgdpQWAbdq00Y4dO7R161bH0ahRI3Xr1s3x5/Lly2v16tWO76SlpenQoUOKiYmRJMXExGjHjh06evR///1euXKlLBaL6tSp4%2Bhz7hjFfYrHKCvIAOKKtyH1O3V7tI/q1m%2BowjNnNH5UsnrG36OlKZt01VWBCo%2B4Rt9t%2B8npOx%2B9P0vvvjlRLW5vW2K8FwY%2BoejaNyrjyK/O7S%2BN1TMvjHR8LjxTqI6xTXTn3fe65sYAg1wdFqFeA1/UNdWuld1u14rPP9KL/brrrU%2B/Vtj/RWpwr66qEX2Dxs1eKEmaNXmUXniim6Z%2BuFxms3MeYcbrIxR8dZh%2B2rPTqb2wsFC%2Bfv669%2BHe%2BvfKJZft3uAeJhnzGreLGaFixYq68cYbndoCAwMVHBzsaO/Zs6cGDhyoypUry2Kx6Mknn1RMTIyaNGkiSWrbtq3q1Kmj7t27a8yYMUpPT9ewYcOUmJjoCDr79u2rKVOmaPDgwfrXv/6lNWvWaMGCBVq6dOkl3%2B/lRACIK967H3zu9Pm1iW8ppm517dq2RbfENJOPj4%2BuDglz6rPqq8Vqd899Cgys4NQ%2Bf87bOmHL1hMDn1fKmhVO5yparKposZ4zxhfKzsrUfQ%2BQ6YBnu631nU6fe/Z/QYs/nKXd237Q70ePKOO/hzTjs68VWKGiJOm5UVPVsXENbVn3bzW8raXje%2BtTVumH779W8qTZ2vDvVU5jBlwVqAHJr0uSdm3ZoJMnsl18V3Cnf7qCt7RxjDRhwgSZzWZ17txZeXl5iouL05tvvuk47%2BPjoyVLlujxxx9XTEyMAgMDlZCQoJEj//cv91FRUVq6dKkGDBigSZMm6ZprrtE777yjuLg4YyfrYgSA8DonTpxdTWY9Z3%2Boc%2B3ctkW7d25X0qvOezrtT9utN8eP0oKl3%2BrwoQN/e51PPpij25q31v9FVr30SQOXSWFhob5d9rlyT51Snfq36NfDBySTSeV9fR19fP38ZDKbtWPzOkcAePz3oxqXNEAvTXlP/mXoOShc2b755hunz/7%2B/po6daqmTp163u9Uq1ZNX3755V%2BO26pVK23ZssWIKboNzwAarFWrVk6vnYFnKSoq0qtJg9Xglhhdd/0Npfb55IM5qlHrejW4pYmjLT8vTwOf6KFnX3xFEddE/u11MtKPKGXNCnXp1sOoqQMu9fPeH3VXw2qKuylCE0YM0og35qh6zWjVuamRAgKu0ozXRyr39CmdPpWj6WOGq6iwUMd/O/sgvN1u15ihT%2BruB3oo%2Bsab3Xwn8ATufhMI/h4BILzKiCEDtG/Pj5owfU6p53NPn9aShQvU5aFHnNrHvZqkGrWuV8cuD17QdRYteF8VLUGKvfPuS54zcDlEVq%2Bptz/7Wm9%2BtFz3xD%2Bq0UP66Zf9aQqqXEVJE2cq9Zvlat%2Bwmu6%2B9VqdtGWrVp16MpnO/hWy8P23dSrnpB7qw7/84ixPeBcw/holYHiNkUMH6ptVX%2Bn9hSsUFvF/pfZZtmShck%2BfUqcuDzm1r/v%2BW%2B3dvUvLl5x9CN5ut0uSmtxQVX2fHqynnh3m6Gu32/Xph3PVsUu8fM8pmwGerLyvr/6v2rWSpOtuqK%2B0HVv02dy3NHDEeN3StLXmrfhB2ZnH5ONTThUsVnVuXkfhkdUkSVvW/1s/bt2ouJsinMbs2zVWsR266PnXzl9uA%2BAeBIAuUFRUpMGDB%2Budd96Rr6%2Bv%2Bvbtq%2BTkZHdPy2vZ7Xa99MIzWvnVYs39dJkiq1Y/b99PP3hPt7dtr8pVrnZqf%2BOd%2BcrNPe34vGPrJg0d8LjmLVqpqtWjnPpuSP23Dh74SV0eSjD0PoDLqchepII/3n1azFopWJK0eV2Kso79pttuP7t4pN/QUfrXU0Md/X7/LV3P9eqqpPHvqHa9hpdv0vAYJl3cCt6/GgeuQQDoAnPmzNHAgQO1fv16paamqkePHmratKnuuOMOd0/NK40YMkBLFi7Qm7M%2BUmCFCvrt6NnX%2BVSsaHV6WP3ggZ%2B0cd13mvF%2Byb3/qla/1ulz5vFjkqQataJlsTq/VuiT%2BXN0U4NbzvuMIeBp3h7/km5t3kahEdfoVM5JrV7yqbZt%2BF6j3/5YkvTVZ/NV7drrZK0crB%2B3btTUV19Ql4S%2BqhpVS5IUGnGN03gBgYGSpIjI6ro67H9ZwV/2p%2BlMQb5s2Zk6nXPSsU9gzdp1L8dtAjgHAaAL1KtXT8OHD5ck1apVS1OmTNHq1atLDQDz8vKUl5fn%2BPzn9x3i0n0w521JUvfOzltdjJo43WmLlk8/eE9h4f%2BnZq2cX/J9MU7YsrVi6ed64aWx/3gM4HLLOva7Xns%2BUcd/y1BgRYuuva6ORr/9sRo1bSVJOnxgv96Z8LJOZGcqLCJS3foOUJeExy/6OkMei1fGr4cdn/vc11qStGb374bcBzyHWSaZDXiAz0wO0GVM9uKHmWCIVq1a6YYbbnBaYt6xY0cFBwdr5syZJfonJydrxIgRJdo37T2iChUtJdoBSP/NOv33nQAvlXPyhO6%2BJUrZ2dlOr0%2B7HGw2m6xWq1ZtPqhAA/4OyzlhU2yDam65lysdq4BdoHz58k6fTSaTioqKSu07ZMgQZWdnO47Dhw%2BX2g8AAMAolIDdzM/Pr9R3GgIAUGaxCsTjEQACAABDGbWJMxtBuw4lYAAAAC9DBtBgf37voCQtWrTo8k8EAAB3MeotHiQAXYYAEAAAGIpHAD0fJWAAAAAvQwYQAAAYixSgxyMDCAAA4GXIAAIAAEOxDYznIwAEAACGMhm0CtiQlcQoFSVgAAAAL0MGEAAAGIo1IJ6PABAAABiLCNDjUQIGAADwMmQAAQCAoVgF7PkIAAEAgKFYBez5KAEDAAB4GTKAAADAUKwB8XxkAAEAALwMGUAAAGAsUoAejwAQAAAYilXAno8SMAAAgJchAwgAAAzFNjCejwAQAAAYikcAPR8lYAAAAC9DBhAAABiLFKDHIwAEAACGYhWw56MEDAAA4GXIAAIAAEOxCtjzkQEEAADwMmQAAQCAoVgD4vkIAAEAgLGIAD0eJWAAAAAvQwYQAAAYim1gPB8BIAAAMBSrgD0fJWAAAAAvQwYQAAAYijUgno8AEAAAGIsI0ONRAgYAAPAyZAABAIChWAXs%2BcgAAgAAeBkygAAAwFgGbQNDAtB1CAABAIChWAPi%2BSgBAwAAeBkygAAAwFikAD0eASAAADAUq4A9HyVgAAAAL0MGEAAAGMpk0CpgQ1YSo1QEgAAAwFA8Auj5KAEDAAB4GTKAAADAWKQAPR4ZQAAAAC9DBhAAABiKbWA8HwEgAAAwlEkGrQK%2B9CFwHpSAAQAAvAwZQAAAYCjWgHg%2BAkAAAGAoNoL2fJSAAQAAvAwZQAAAYDCKwJ6OABAAABiKErDnowQMAADgZcgAAgAAQ1EA9nxkAAEAALwMASAAADBU8TOARhwXatSoUbrllltUsWJFhYSEqFOnTkpLS3Pqk5ubq8TERAUHB6tChQrq3LmzMjIynPocOnRI7du311VXXaWQkBA9%2B%2ByzOnPmjFOfb775Rg0aNJCfn59q1qyp2bNn/9Ofym0IAAEAgKFMBv5zob799lslJiZq3bp1WrlypQoKCtS2bVvl5OQ4%2BgwYMEBffPGFPv74Y3377bf69ddfdd999znOFxYWqn379srPz9fatWs1Z84czZ49W0lJSY4%2BBw4cUPv27dW6dWtt3bpV/fv3V69evbR8%2BXJjfrzLxGS32%2B3ungT%2Bx2azyWq1atPeI6pQ0eLu6QAe6b9Zp909BcBj5Zw8obtviVJ2drYslsv790jx32F7D/2uigZc%2B4TNpuuqVvlH9/Lbb78pJCRE3377rVq0aKHs7GxdffXVmj9/vrp06SJJ2rNnj2rXrq3U1FQ1adJEX331lTp06KBff/1VoaGhkqTp06frueee02%2B//SZfX18999xzWrp0qXbu3Om4Vnx8vLKysrRs2bJLvufLhQwgAAAwlsnAQ2cDy3OPvLy8v51Cdna2JKly5cqSpE2bNqmgoECxsbGOPtdff72qVq2q1NRUSVJqaqrq1q3rCP4kKS4uTjabTbt27XL0OXeM4j7FY5QVBIAAAMBQBsd/ioyMlNVqdRyjRo36y%2BsXFRWpf//%2Batq0qW688UZJUnp6unx9fRUUFOTUNzQ0VOnp6Y4%2B5wZ/xeeLz/1VH5vNptOny051gm1gAACARzt8%2BLBTCdjPz%2B8v%2BycmJmrnzp367rvvXD21MosAEAAAGMroN4FYLJYLfgawX79%2BWrJkiVJSUnTNNdc42sPCwpSfn6%2BsrCynLGBGRobCwsIcfTZs2OA0XvEq4XP7/HnlcEZGhiwWiwICAi7uBt2IEjAAADCUO1YB2%2B129evXTwsXLtSaNWsUFRXldL5hw4YqX768Vq9e7WhLS0vToUOHFBMTI0mKiYnRjh07dPToUUeflStXymKxqE6dOo4%2B545R3Kd4jLKCDCAAACjzEhMTNX/%2BfH3%2B%2BeeqWLGi45k9q9WqgIAAWa1W9ezZUwMHDlTlypVlsVj05JNPKiYmRk2aNJEktW3bVnXq1FH37t01ZswYpaena9iwYUpMTHSUnfv27aspU6Zo8ODB%2Bte//qU1a9ZowYIFWrp0qdvu/Z8gAGURqmwAAAuzSURBVAQAAMZyw7vgpk2bJklq1aqVU/usWbPUo0cPSdKECRNkNpvVuXNn5eXlKS4uTm%2B%2B%2Baajr4%2BPj5YsWaLHH39cMTExCgwMVEJCgkaOHOnoExUVpaVL/7%2B9%2B4%2Bpqv7jOP66l6/3h4IYGaD5IxC/Cm4U9MNutsRKAdN0c7l%2BrGArl9ZmktDmUsFaOVr%2BwdpyTpq2ZjWnyyyZ/TBgYpGWF1qMVeJcpIwmwbxXgcuPz/cP6y5CVPLquX7v87Hxxz2fcz/nfWCH%2B77vz/l8zj4VFBSorKxMEyZMUHl5ubKzs//1aVqBdQDDDOsAApfGOoDA0MJhHcDjJ9tCtg5g8s03WnIu/%2B%2B4BxAAACDCMAQMAABCKtSzgBF6VAABAAAiDBVAAAAQYsNbwuVi/eDqIAEEAAAhxRBw%2BGMIGAAAIMKQAAIAAEQYhoABAEBIMQQc/qgAAgAARBgqgAAAIKRsIZoFHJqZxLgQEkAAABBSDAGHP4aAAQAAIgwVQAAAEFI2hWYJZwqAVw8VQAAAgAhDBRAAAIQWJcCwRwIIAABCilnA4Y8hYAAAgAhDBRAAAIQUy8CEPxJAAAAQUtwCGP4YAgYAAIgwVAABAEBoUQIMeySAAAAgpJgFHP4YAgYAAIgwVADDjDFGkuT3%2ByyOBAhfZ/1dVocAhK1zf35%2B/PV5YgWf70xIZvD6fGeuvBNcEAlgmPH5zl%2B4szP/a3EkAIDrmc/nU2xs7DU9psPhUGJioqYmTQxZn4mJiXI4HCHrD%2BfZjJVfETBIf3%2B/Tp06pZiYGNlYACksnDlzRhMnTlRzc7NGjx5tdThA2OEaCS/GGPl8Po0fP152%2B7W/06urq0uBQCBk/TkcDrlcrpD1h/OoAIYZu92uCRMmWB0GLmD06NF8uAEXwTUSPq515e/vXC4XCdt1gEkgAAAAEYYEEAAAIMKQAAKX4HQ6VVxcLKfTaXUoQFjiGgGuP0wCAQAAiDBUAAEAACIMCSAAAECEIQEEAACIMCSAAAAAEYYEEAAAIMKQAAIAAEQYEkDgIj788EPt3r3b6jCAsMeKYsD1hWcBA0NoaGjQG2%2B8oaioKMXExGjevHlWhwSEBWOM%2Bvv7FRUVpT/%2B%2BEMul0sjR460OiwAw0AFELiAoqIiFRcXy%2B126/jx41q5cqUqKiqsDguwVEVFherr62Wz2RQVFaWPPvpIDz/8sDIyMrRhwwZ5vV6rQwRwmXgSCPAP27dvV0FBgQ4cOKCkpCR1d3crLy9PPp9P69evV05OjtUhAtdca2urPB6PsrKy9PLLL6unp0cej0erV6/W6dOndfDgQSUlJWnVqlW69957rQ4XwCWQAAL/sHbtWlVXV6u6ulqSZLfbdfLkSS1ZskRtbW166623SAIRkY4ePapnn31Wd999txISEiSdv14kad%2B%2Bfdq0aZNiY2O1evVqkkAgzDEEDPzpr%2B9CTqdTXV1dCgQCstvt6unp0c0336yNGzfq1KlTevPNN/XVV19ZHC1w7WVmZmrLli06fPiwysvL5ff7g20PPfSQXnzxRXV0dKisrEyVlZUWRgrgUkgAgT/ZbDZJ0uLFi%2BX1elVaWipJGjFihCQpEAgoNzdXxhht3LhRPT09lsUKWCUzM1Nbt26V3W5XTU2NGhoagm0LFixQUVGRmpqa9M4776izs9PCSAFcTFRJSUmJ1UEA4SQhIUGTJk3SSy%2B9JJ/Pp7i4OHV1dWnDhg266667tHr1ahUWFuq%2B%2B%2B5TcnKy1eEC11xCQoLmzJmjnTt36rffflNycrLi4%2BMlSVOnTlVSUpKWLl2qsWPHWhwpgKFwDyAwhN27d%2Bu5556Tw%2BGQMUbx8fH6%2Buuv1draqrlz52rXrl1KT0%2B3OkzAMl6vV88884wyMzNVUFCgtLQ0q0MCcJlIAIGLOHnypJqbm9XT06NZs2bJbrdrzZo12rNnjyorK5WYmGh1iIClvF6vli9fruTkZBUXF2v69OlWhwTgMpAAApepoaFBpaWlqqio0JdffqnbbrvN6pCAsHDkyBEVFRXpgw8%2B0Lhx46wOB8Bl4EkgwGXo7e1VIBBQfHy8qqurNWPGDKtDAsLGnXfeqf3798vlclkdCoDLRAUQGIaenp7grGAAAK5XJIAAAAARhnUAAQAAIgwJIAAAQIQhAQQAAIgwJIAAAAARhgQQAAAgwpAAAgi5EydOyGazqa6uTpJUVVUlm82mjo6Oax5LVlaWVq1aNWR7SUnJsBf1ttls2rNnzxXFlZ%2Bfr8WLF19RHwDwb5EAAhEiPz9fNptNNptNDodDKSkpeuWVV9Tb23vVj33PPfeopaVFsbGxl7X/pZI2AMCV4UkgQATJycnRtm3b1N3drYqKCj3//PMaMWKE1qxZM2jfvr4%2B2Ww22e1X/j3R4XDw3GQACCNUAIEI4nQ6lZiYqMmTJ2vFihV68MEHtXfvXknS9u3bNWbMGO3du1dpaWlyOp369ddfJUnl5eVKTU2Vy%2BXS9OnT9fbbbw/o9/Dhw8rIyJDL5dIdd9whr9c7oP1CQ8CHDh1SVlaWRo4cqRtuuEHZ2dlqb29Xfn6%2BqqurVVZWFqxYnjhxQpL0448/Kjc3V9HR0UpISNCTTz6p06dPB/s8e/asnnrqKUVHR2vcuHHatGnTsH9HR44c0dy5czV27FjFxsZq9uzZOnr06KD9WlpalJubK7fbreTkZO3atWtAe3Nzs5YuXaoxY8YoLi5OixYtCp4HAFiNBBCIYG63W4FAIPj63LlzKi0tVXl5uRoaGhQfH68dO3Zo/fr1eu2119TY2KjXX39d69at07vvvitJ8vv9WrBggdLS0vT999%2BrpKREhYWFFz1uXV2dHnjgAaWlpembb75RTU2NFi5cqL6%2BPpWVlcnj8WjZsmVqaWlRS0uLJk6cqI6ODt1///3KyMjQd999p/3796u1tVVLly4N9ltUVKTq6mp9/PHH%2Bvzzz1VVVXXB5O1ifD6f8vLyVFNTo9raWk2dOlXz58%2BXz%2BcbsN%2B6deu0ZMkS1dfX64knntCjjz6qxsZGSecfGZidna2YmBgdPHhQhw4dUnR0tHJycgb8vgHAMgZARMjLyzOLFi0yxhjT399vvvjiC%2BN0Ok1hYaExxpht27YZSaaurm7A%2B6ZMmWLef//9AdteffVV4/F4jDHGbNmyxdx4442ms7Mz2L5582YjyXi9XmOMMZWVlUaSaW9vN8YY89hjj5lZs2YNGevs2bPNCy%2B8MOiY8%2BbNG7CtubnZSDI//fST8fl8xuFwmJ07dwbb29rajNvtHtTX3xUXF5tbb711yPa%2Bvj4TExNjPvnkk%2BA2SWb58uUD9ps5c6ZZsWKFMcaY9957z0ybNs309/cH27u7u43b7TafffaZMWbg3wMArjXuAQQiyKeffqro6Gj19PSov79fjz/%2BuEpKSoLtDodD6enpwddnz55VU1OTnn76aS1btiy4vbe3Nziho7GxUenp6XK5XMF2j8dz0Tjq6ur0yCOPDCv2%2Bvp6VVZWKjo6elBbU1OTOjs7FQgENHPmzOD2uLg4TZs2bVjHaW1t1dq1a1VVVaXff/9dfX19OnfuXHA4/C//PEePxxOc9VxfX69jx44pJiZmwD5dXV1qamoaVjwAcDWQAAIRZM6cOdq8ebMcDofGjx%2Bv//xn4L8At9stm80WfO33%2ByVJW7duHZBYSVJUVNS/jsPtdg/7PX6/XwsXLlRpaemgtnHjxunYsWP/Op6/y8vLU1tbm8rKyjR58mQ5nU55PJ5hDd36/X7dfvvt2rFjx6C2m266KSRxAsCV4B5AIIKMGjVKKSkpmjRp0qDk70ISEhI0fvx4HT9%2BXCkpKQN%2BkpKSJEmpqan64Ycf1NXVFXxfbW3tRftNT0/XgQMHhmx3OBzq6%2BsbsC0zM1MNDQ265ZZbBsUyatQoTZkyRSNGjNC3334bfE97e7t%2B/vnnS57n3x06dEgrV67U/PnzNWPGDDmdzgETTYY6x9raWqWmpgZj/eWXXxQfHz8o1stdCgcArqb/Ab49w6/j2JAHAAAAAElFTkSuQmCC'
p112
ssS'pearson-r'
p113
g75
(g49
S'\xc6\xd83\x95\xa5\x02\xe3?'
p114
tp115
Rp116
sS'precision_score'
p117
g75
(g49
S'\x99\xea\xbd\xe3ZK\xe8?'
p118
tp119
Rp120
sS'confusion_matrix'
p121
g10
(g11
(I0
tp122
g13
tp123
Rp124
(I1
(I2
I2
tp125
g20
I00
S'J+\x00\x00\x00\x00\x00\x00\xe2\x04\x00\x00\x00\x00\x00\x00\xbb\n\x00\x00\x00\x00\x00\x00e\x0f\x00\x00\x00\x00\x00\x00'
p126
tp127
bsS'accuracy'
p128
g75
(g49
S'-\x11\xdbYyF\xe9?'
p129
tp130
Rp131
sa.