(lp0
ccopy_reg
_reconstructor
p1
(csklearn.linear_model.logistic
LogisticRegression
p2
c__builtin__
object
p3
Ntp4
Rp5
(dp6
S'warm_start'
p7
I00
sS'C'
p8
F1.0
sS'classes_'
p9
cnumpy.core.multiarray
_reconstruct
p10
(cnumpy
ndarray
p11
(I0
tp12
S'b'
p13
tp14
Rp15
(I1
(I2
tp16
cnumpy
dtype
p17
(S'i8'
p18
I0
I1
tp19
Rp20
(I3
S'<'
p21
NNNI-1
I-1
I0
tp22
bI00
S'\x00\x00\x00\x00\x00\x00\x00\x00\x01\x00\x00\x00\x00\x00\x00\x00'
p23
tp24
bsS'n_jobs'
p25
I1
sS'verbose'
p26
I0
sS'fit_intercept'
p27
I01
sS'max_iter'
p28
I100
sS'class_weight'
p29
NsS'n_iter_'
p30
g10
(g11
(I0
tp31
g13
tp32
Rp33
(I1
(I1
tp34
g17
(S'i4'
p35
I0
I1
tp36
Rp37
(I3
S'<'
p38
NNNI-1
I-1
I0
tp39
bI00
S'\x0f\x00\x00\x00'
p40
tp41
bsS'intercept_'
p42
g10
(g11
(I0
tp43
g13
tp44
Rp45
(I1
(I1
tp46
g17
(S'f8'
p47
I0
I1
tp48
Rp49
(I3
S'<'
p50
NNNI-1
I-1
I0
tp51
bI00
S'\xb0\xdf\x0cZPmY\xbf'
p52
tp53
bsS'penalty'
p54
S'l2'
p55
sS'multi_class'
p56
S'ovr'
p57
sS'random_state'
p58
NsS'_sklearn_version'
p59
S'0.18.1'
p60
sS'dual'
p61
I00
sS'tol'
p62
F0.0001
sS'coef_'
p63
g10
(g11
(I0
tp64
g13
tp65
Rp66
(I1
(I1
I108
tp67
g49
I00
S'YYi\x8c\xd6\xc3u\xbf\xc1a\xdf\xa1\xb0\xd8\xce\xbe%\xc42wU:b\xbf\xd0\xda\x9bkf\x1c6?\t\x1e\x10"\x16zI?\xf7\xa8\xea\xff\xb6\x19\x84\xbfv=\x03P\x0f\xff:\xbf\x00#}|\xce\xae!?\xf0\xcb\xef\xa5\xa3\xcf\x0b?V3\x1cuA\xe7\xc2\xbe\xb3\x84\xffJ\x0c`Z\xbfPY\x14\xd6\x89\xf34?\x94\x18\x86#\x9f\x83\xf1\xbe\xb7\x95YH\xf3\xd9\xec\xbe\xf4bkw\x99\x83\xd5\xbe\x0f\xb2\xa25\x1f\xb0.\xbf"\xc0\xfc\x8c\xaf\x066\xbf\x1f\xa0\x14\x95\x81\x14\x1c\xbf\x9enC\x9er\xf1\x04\xbf"\xa3LYc\x96\x14\xbf\x8ec\xac\xaa!n%\xbf\xcc\tX\xbd\xa7\xe7 \xbf\xb3\xa3\xa6Fj\xc9\x00\xbf\xf1\xf3@\xea\xa8v\x01\xbf\xe8 \xed\xdc\xe8iK?\xc9\xd7\x01\xa5\xe7l,?E\xae&\r\x03{W\xbfP\xa6>U4OA?k\xba\xcd\x8a\xb4\xc3\xf0\xbeO\x96\x17)\xe240?\xb8\xfc\xc6<\xfe\x7fI\xbf\x9a\xe3 n\xa5?O\xbf\xc3\x8c\x99\xe8\x95C\xd7>J\x071\x83H\xc6i?Y\xbd6\xd6\xe2\xdd\x19\xbf\x14M9\xf7e\xdfi\xbf\xa8\x97\x08W]\xa20\xbf\x84Twm\x86`/\xbf\xdcu\xed\xd2\xdd$;\xbf\'\x90\x0b\xbc>UE\xbf\xf17bp\xdb\xaf\xba\xbe\x01s\xeb\xde0w+\xbf\x9e\xa1\r\xd4\xdcEO?\xf6\x9e-\xa8b\x87+\xbf7\xca]\xf1Z\xae6\xbfP\xf1\x03"\xfd\x866\xbf\xff\x18\x92\x89\xfdYO\xbf\xdd\xb4\xa3\x17\x04\xfd\x08\xbf\xef\x90\x95~,\xd9H?\x91\xd94\xde64\x10?#\xa0OV\x1f\x87\x0e\xbf\xee\x93V\xd3\xb9\xa8\x04?\xae%X\x02\x99\xa4 \xbf1\xa5\xfb\x82&.g?\x16\x1e7y\xa7M^\xbfv\x10\xd7\xb5`i2\xbfiol\x8eg*\\\xbf\xdc \x00@b\x1cM\xbf\xa1\xddT\xd4\xeb[7?\\r/\xbd\xc8\xc2\x16\xbfQa\x1el\xfc;\x08\xbf\xd8-\xa0A\x10\x00@\xbfJ\xe0\x02T\xe6\x9e\x0f\xbf\x99\x8f\xd1.\x89\x84L\xbf\x18H\x02\x0b@\x16c\xbf\x99`\xefw_~I?\xe2\x04\x88\xdccg\xfa\xbe\x86\x9e\xfa\x1bq\xcc\xba>\x1f\xf4\x05\xb7\xb0{\xd5>\x00\x14W.\xc6\xea\xb3\xbe\xcd\x93Tr\xb2(\xf0\xbe\x1b\xd8\xda\'\xa8\r\xde>6\x08\x8d+\xd7\x02\xf5\xbeAS\xb7\xcf\xac\x05\xd3\xbe\xb0\xa8\x03\xb2\xdc\x8f\xf6\xbe\x0b ~\x96<\xbc\xda>\xe1v\x8c?\xb8\xb2\xdb>\xbd\xcd?\x92\xc1,\xe1>qI\x19\xcb\xe7\x15\xcf\xbe\xafd\x96\xbc\xb2\xa8\xed\xbe\xb7\rU\xc6\xc6\xa8\xe0\xbe\xe5\x9a\x04R\xa1\x95\xb1\xbe\xb8\xef\xcf~\xbaa\xc4\xbe\xc9\x87_\xa8\xf7\x0c\xc4>/\x92\x19E0\xd5\xb1\xbebT`\xde\xc9r\xe7>\xad\x8b\x1d)\x80\xbb\xd6>\x05\x98O\xd7\xbe\x0b\xc7\xbe\xec\xc5\x0c\xb6\x9b\xd9\xe1>\xa3\x94Q\xa8<"\xe9\xbe\x87l\x1b\n6\xb1\xde>\xb2F\xa0\x88\xbdD\xc7\xbe\xc4\xb3\x7fM8D\x1e\xbfy\xf4\xa9\x8cH6\xdb\xbe\xb6C\xe6)\xd7\xfe\xd0\xbe\x0c\xae\x1b\x7f\xb4A\xd7\xbe\x18:\xc9\xb1\xba7\xd8>\xa59\x03\xbf\xa0\xea\xd5\xbe\xe1\xd8_\xad/\xce\xe0\xbem\xfd\xeb\x98%\x85\xf6\xbe\xa6\x96\xed\xdc+\xd2\x8e\xbeP\x94\x19P\x80\x03\xe9\xbew\xaa!\x86\xbb\x13\xe0>\xaf_\xea\xdda\xb3\xb6\xbe\xa9\xcf\xcf-|\x0f\xd0\xbe\xfaT\xb4n7EU\xbfK\xcd\xfa\xb9!\x0f\xf6\xbe\xfb\xca\xac\x9c\x19\xea\xcb>'
p68
tp69
bsS'solver'
p70
S'liblinear'
p71
sS'intercept_scaling'
p72
I1
sba(dp73
S'f1_score'
p74
cnumpy.core.multiarray
scalar
p75
(g49
S'\x90E\x1aa\x9a\xae\xd8?'
p76
tp77
Rp78
sS'observation_count'
p79
I32560
sS'average_precision_score'
p80
g75
(g49
S'\xcdPfK\x82\x92\xe2?'
p81
tp82
Rp83
sS'normalized-confusion-matrix'
p84
g10
(g11
(I0
tp85
g13
tp86
Rp87
(I1
(I2
I2
tp88
g49
I00
S'\x02\xb0\x13\xbd\xe1\xf5\xee?\xe3\xff\xc4.\xe4\xa1\xa0?9K\x00\x97\x8f\x92\xe7?\x8ei\xff\xd1\xe0\xda\xd0?'
p89
tp90
bsS'label_balance'
p91
g75
(g49
S'I\xcah\x05\x17\xd3\xce?'
p92
tp93
Rp94
sS'pearson-r-pval'
p95
g75
(g49
S'\x00\x00\x00\x00\x00\x00\x00\x00'
p96
tp97
Rp98
sS'recall_score'
p99
g75
(g49
S'\x8ei\xff\xd1\xe0\xda\xd0?'
p100
tp101
Rp102
sS'auc_score'
p103
g75
(g49
S'\x88vQ\xae\xba\xb3\xe2?'
p104
tp105
Rp106
sS'plots'
p107
(dp108
S'plot2'
p109
S'data:image/png;base64,iVBORw0KGgoAAAANSUhEUgAAAoAAAAHgCAYAAAA10dzkAAAABHNCSVQICAgIfAhkiAAAAAlwSFlzAAAPYQAAD2EBqD%2BnaQAAIABJREFUeJzs3Xl8TFcbB/DfTJZJRDLZt0oiEmJPlIrYU5HYq9agBEG1QYldNRKqitrXau21a6naQ5Ai9qYIyWutNQmRhezLvH%2BQy5ggzIwZmd%2B3n/upnHvuvc%2B9iCfPueeMSCaTyUBEREREOkOs6QCIiIiI6P1iAkhERESkY5gAEhEREekYJoBEREREOoYJIBEREZGOYQJIREREpGOYABIRERHpGCaARERERDqGCSARERGRjmECSERERKRjmAASERER6RgmgEREREQ6hgkgERERkY5hAkhERESkY5gAEpHGXLlyBf7%2B/pBKpRCJRNi%2BfbtKz3/z5k2IRCKsWrVKpectCypWrIi%2BfftqOgwi0hAmgEQ67tq1a/jyyy9RqVIlGBkZwczMDI0aNcK8efOQnZ2t1msHBQXhwoULmDp1KtauXYt69eqp9Xpl0aVLlxAeHo6bN29qOhQi%2BoCIZDKZTNNBEJFm7Nq1C127doVEIkGfPn1Qs2ZN5OXl4ejRo/j999/Rt29fLFu2TC3Xzs7ORrly5fDtt9/i%2B%2B%2B/V8s1ZDIZcnNzYWBgAD09PbVcQ9O2bt2Krl274tChQ2jevHmpj8vNzYVYLIaBgYH6giMiraWv6QCISDNu3LiBwMBAuLi4ICoqCg4ODsK%2BkJAQXL16Fbt27VLb9R88eAAAMDc3V9s1RCIRjIyM1Hb%2BD41MJkNOTg6MjY0hkUg0HQ4RaRCHgIl01IwZM/DkyRMsX75cLvkr5u7ujm%2B%2B%2BUb4uqCgAFOmTIGbmxskEgkqVqyICRMmIDc3V%2B64ihUrol27djh69Cjq168PIyMjVKpUCWvWrBH6hIeHw8XFBQAwevRoiEQiVKxYEQDQt29f4dcvCg8Ph0gkkmuLjIxE48aNYW5ujvLly8PDwwMTJkwQ9r/qHcCoqCg0adIEJiYmMDc3x2effYbLly%2BXeL2rV6%2Bib9%2B%2BMDc3h1QqRb9%2B/ZCVlfXqB/tM8%2BbNUbNmTZw/fx7NmjVDuXLl4O7ujq1btwIAjhw5Am9vbxgbG8PDwwMHDhyQO/6///7D119/DQ8PDxgbG8PKygpdu3aVG%2BpdtWoVunbtCgDw9fWFSCSCSCTC4cOHATz/vdi3bx/q1asHY2Nj/Pzzz8K%2B4ncAZTIZfH19YWNjg%2BTkZOH8eXl5qFWrFtzc3JCZmfnGeyaiDwcTQCId9ddff6FSpUpo2LBhqfoPGDAAYWFh%2BPjjjzFnzhw0a9YM06ZNQ2BgoELfq1evokuXLmjZsiVmzZoFCwsL9O3bF3FxcQCATp06Yc6cOQCAHj16YO3atZg7d%2B5bxR8XF4d27dohNzcXkydPxqxZs9ChQwccO3bstccdOHAAAQEBSE5ORnh4OEJDQ3H8%2BHE0atSoxPfounXrhsePH2PatGno1q0bVq1ahYiIiFLFmJqainbt2sHb2xszZsyARCJBYGAgNm3ahMDAQLRp0wY//vgjMjMz0aVLFzx%2B/Fg49vTp0zh%2B/DgCAwMxf/58DB48GAcPHkTz5s2FBLRp06YYNmwYAGDChAlYu3Yt1q5di2rVqgnnSUhIQI8ePdCyZUvMmzcPXl5eCnGKRCKsWLECOTk5GDx4sNA%2BadIkxMXFYeXKlTAxMSnVPRPRB0JGRDonPT1dBkD22Weflap/bGysDIBswIABcu2jRo2SAZBFRUUJbS4uLjIAsujoaKEtOTlZJpFIZCNHjhTabty4IQMgmzlzptw5g4KCZC4uLgoxTJo0Sfbit6w5c%2BbIAMgePHjwyriLr7Fy5UqhzcvLS2ZraytLSUkR2v7991%2BZWCyW9enTR%2BF6/fv3lzvn559/LrOysnrlNYs1a9ZMBkC2fv16oS0%2BPl4GQCYWi2UnTpwQ2vft26cQZ1ZWlsI5Y2JiZABka9asEdq2bNkiAyA7dOiQQv/i34u9e/eWuC8oKEiu7eeff5YBkP3222%2ByEydOyPT09GTDhw9/470S0YeHFUAiHZSRkQEAMDU1LVX/3bt3AwBCQ0Pl2keOHAkACu8KVq9eHU2aNBG%2BtrGxgYeHB65fv/7OMb%2Bs%2BN3BP//8E0VFRaU65v79%2B4iNjUXfvn1haWkptNeuXRstW7YU7vNFL1bEAKBJkyZISUkRnuHrlC9fXq5C6uHhAXNzc1SrVg3e3t5Ce/GvX3w%2BxsbGwq/z8/ORkpICd3d3mJub49y5c6W426dcXV0REBBQqr6DBg1CQEAAhg4dit69e8PNzQ0//PBDqa9FRB8OJoBEOsjMzAwA5IYcX%2Be///6DWCyGu7u7XLu9vT3Mzc3x33//ybU7OzsrnMPCwgKpqanvGLGi7t27o1GjRhgwYADs7OwQGBiIzZs3vzYZLI7Tw8NDYV%2B1atXw8OFDhXfdXr4XCwsLACjVvVSoUEHhvUWpVAonJyeFtpfPmZ2djbCwMDg5OUEikcDa2ho2NjZIS0tDenr6G69dzNXVtdR9AWD58uXIysrClStXsGrVKrlElIjKDiaARDrIzMwMjo6OuHjx4lsd93Iy8yqvWnJFVopVp151jcLCQrmvjY2NER0djQMHDqB37944f/48unfvjpYtWyr0VYYy9/KqY0tzzqFDh2Lq1Kno1q0bNm/ejP379yMyMhJWVlalrngCeOsE7vDhw8LEngsXLrzVsUT04WACSKSj2rVrh2vXriEmJuaNfV1cXFBUVIQrV67ItSclJSEtLU2Y0asKFhYWSEtLU2h/ucoIAGKxGC1atMDs2bNx6dIlTJ06FVFRUTh06FCJ5y6OMyEhQWFffHw8rK2ttWayw9atWxEUFIRZs2YJE2oaN26s8GxKm5SXxv379zF06FD4%2B/ujXbt2GDVqVInPnYg%2BfEwAiXTUmDFjYGJiggEDBiApKUlh/7Vr1zBv3jwAQJs2bQBAYabu7NmzAQBt27ZVWVxubm5IT0/H%2BfPnhbb79%2B9j27Ztcv0ePXqkcGzxDNeXl6Yp5uDgAC8vL6xevVoukbp48SL2798v3Kc20NPTU6gyLliwQKG6WZywlpQ0v62BAweiqKgIy5cvx7Jly6Cvr4/g4OBSVTuJ6MPChaCJdJSbmxvWr1%2BP7t27o1q1anKfBHL8%2BHFs2bJFWCfO09MTQUFBWLZsGdLS0tCsWTOcOnUKq1evRseOHeHr66uyuAIDAzF27Fh8/vnnGDZsGLKysrBkyRJUqVJFbvLD5MmTER0djbZt28LFxQXJyclYvHgxKlSogMaNG7/y/DNnzkTr1q3h4%2BOD4OBgZGdnY8GCBZBKpQgPD1fZfSirXbt2WLt2LaRSKapXr46YmBgcOHAAVlZWcv28vLygp6eH6dOnIz09HRKJBJ9%2B%2BilsbW3f6norV67Erl27sGrVKlSoUAHA04Tziy%2B%2BwJIlS/D111%2Br7N6ISPOYABLpsA4dOuD8%2BfOYOXMm/vzzTyxZsgQSiQS1a9fGrFmzMHDgQKHvr7/%2BikqVKmHVqlXYtm0b7O3tMX78eEyaNEmlMVlZWWHbtm0IDQ3FmDFj4OrqimnTpuHKlStyCWCHDh1w8%2BZNrFixAg8fPoS1tTWaNWuGiIgIYVJFSfz8/LB3715MmjQJYWFhMDAwQLNmzTB9%2BvS3njChTvPmzYOenh7WrVuHnJwcNGrUSFjD8EX29vZYunQppk2bhuDgYBQWFuLQoUNvlQDeuXMHI0aMQPv27REUFCS09%2BrVC7///jvGjBmD1q1ba9XzISLl8LOAiYiIiHQM3wEkIiIi0jFMAImIiIh0DBNAIiIiIh3DBJCIiIhIxzABJCIiItIxTACJiIiIdAzXAaS3UlRUhHv37sHU1FSlH0FFRETqJ5PJ8PjxYzg6OkIsfn81oJycHOTl5Sl9HkNDQxgZGakgImICSG/l3r17cHJy0nQYRESkhNu3bwuf%2BKJuOTk5MDa1AgqylD6Xvb09bty4wSRQBZgA0lsxNTUFABhWD4JIz1DD0RCpx63DP2k6BCK1eJyRAXdXJ%2BF7%2BfuQl5cHFGRBUj0IUObfjcI8JF5ajby8PCaAKsAEkN5K8bCvSM%2BQCSCVWWZmZpoOgUitNPIKj76RUv9uyESctqBKfJpEREREOoYVQCIiIlI/EQBlKo%2Bcd6hSTACJiIhI/UTip5syx5PK8GkSERER6RhWAImIiEj9RCIlh4A5BqxKTACJiIhI/TgErFWYABIREZH6sQKoVZhOExEREekYVgCJiIjoPVByCJg1K5ViAkhERETqxyFgrcJ0moiIiEjHsAJIRERE6sdZwFqFCSARERGpH4eAtQrTaSIiIiIdwwogERERqR%2BHgLUKE0AiIiJSPw4BaxWm00REREQ6hhVAIiIiUj8OAWsVJoBERESkfiKRkgkgh4BViQkgERERqZ9Y9HRT5nhSGdZTiYiIiHQMK4BERESkfnwHUKswASQiIiL14zIwWoXpNBEREZGOYQWQiIiI1I9DwFqFCSARERGpH4eAtQrTaSIiIiIdwwogERERqR%2BHgLUKE0AiIiJSPw4BaxWm00REREQ6hhVAIiIiUj8OAWsVJoBERESkfhwC1ipMAImIiOg9ULICyLfWVIpPk4iIiEjHsAJIRERE6schYK3CBJCIiIjUTyRSchIIE0BV4hAwERERkY5hBZCIiIjUj8vAaBUmgERERKR%2BfAdQqzCdJiIiItIxrAASERGR%2BnEIWKswASQiIiL14xCwVmE6TURERKRjWAEkIiIi9eMQsFZhAkhERETqxyFgrcIEkIiIiNROJBJBxARQa7CeSkRERKRjWAEkIiIitWMFULswASQiIiL1Ez3blDmeVIZDwEREREQ6hhVAIiIiUjsOAWsXJoBERESkdkwAtQuHgImIiIh0DCuAREREpHasAGoXJoBERESkdkwAtQuHgImIiKjMmTZtGj755BOYmprC1tYWHTt2REJCglyfnJwchISEwMrKCuXLl0fnzp2RlJQk1%2BfWrVto27YtypUrB1tbW4wePRoFBQVyfQ4fPoyPP/4YEokE7u7uWLVqlUI8ixYtQsWKFWFkZARvb2%2BcOnVK5ff8NpgAEhERkfqJVLC9hSNHjiAkJAQnTpxAZGQk8vPz4e/vj8zMTKHPiBEj8Ndff2HLli04cuQI7t27h06dOgn7CwsL0bZtW%2BTl5eH48eNYvXo1Vq1ahbCwMKHPjRs30LZtW/j6%2BiI2NhbDhw/HgAEDsG/fPqHPpk2bEBoaikmTJuHcuXPw9PREQEAAkpOT3%2B6mVEgkk8lkGrs6fXAyMjIglUohqTUQIj1DTYdDpBappxdqOgQitcjIyICdlRTp6ekwMzN7b9eUSqUw67oMIgPjdz6PLD8bGVsGvXPsDx48gK2tLY4cOYKmTZsiPT0dNjY2WL9%2BPbp06QIAiI%2BPR7Vq1RATE4MGDRpgz549aNeuHe7duwc7OzsAwNKlSzF27Fg8ePAAhoaGGDt2LHbt2oWLFy8K1woMDERaWhr27t0LAPD29sYnn3yChQuffm8pKiqCk5MThg4dinHjxr3zM1EGK4BERESkdiLR8/cA321T7vrp6ekAAEtLSwDA2bNnkZ%2BfDz8/P6FP1apV4ezsjJiYGABATEwMatWqJSR/ABAQEICMjAzExcUJfV48R3Gf4nPk5eXh7Nmzcn3EYjH8/PyEPprASSBERET0wcjIyJD7WiKRQCKRvPaYoqIiDB8%2BHI0aNULNmjUBAImJiTA0NIS5ublcXzs7OyQmJgp9Xkz%2BivcX73tdn4yMDGRnZyM1NRWFhYUl9omPjy/NLasFK4BERESkdiIoU/0TQfTsJUAnJydIpVJhmzZt2huvHRISgosXL2Ljxo3qvs0PBiuAREREpHaqWgbm9u3bcu8Avqn6N2TIEOzcuRPR0dGoUKGC0G5vb4%2B8vDykpaXJVQGTkpJgb28v9Hl5tm7xLOEX%2B7w8czgpKQlmZmYwNjaGnp4e9PT0SuxTfA5NYAWQiIiIPhhmZmZy26sSQJlMhiFDhmDbtm2IioqCq6ur3P66devCwMAABw8eFNoSEhJw69Yt%2BPj4AAB8fHxw4cIFudm6kZGRMDMzQ/Xq1YU%2BL56juE/xOQwNDVG3bl25PkVFRTh48KDQRxNYASQiIiL1e4elXBSOfwshISFYv349/vzzT5iamgrv7EmlUhgbG0MqlSI4OBihoaGwtLSEmZkZhg4dCh8fHzRo0AAA4O/vj%2BrVq6N3796YMWMGEhMTMXHiRISEhAiJ5%2BDBg7Fw4UKMGTMG/fv3R1RUFDZv3oxdu3YJsYSGhiIoKAj16tVD/fr1MXfuXGRmZqJfv35KPBDlMAEkIiIi9VNyCFj2lscuWbIEANC8eXO59pUrV6Jv374AgDlz5kAsFqNz587Izc1FQEAAFi9eLPTV09PDzp078dVXX8HHxwcmJiYICgrC5MmThT6urq7YtWsXRowYgXnz5qFChQr49ddfERAQIPTp3r07Hjx4gLCwMCQmJsLLywt79%2B5VmBjyPnEdQHorXAeQdAHXAaSySpPrAFr0WA6xYbl3Pk9RXhZSNwS/19jLMlYAiYiISO2UnQSi1AQSUsAEkIiIiNSOCaB24SxgIiIiIh3DCiARERGp33ueBUyvxwSQiIiI1I5DwNqFCSARERGpHRNA7cJ3AImIiIh0DCuAREREpHasAGoXJoBERESkdkwAtQuHgImIiIh0DCuAREREpH5cBkarMAEkIiIiteMQsHbhEDARERGRjmEFkIiIiNSOFUDtwgogfdC%2B7NYU8bsikHpiDqLXjEK9Gi6v7KuvL8b4Qa0Qt2MSUk/MwclN49CyYTWFfo42Uqz4vg/uHJqORzGzcXrzBHxc3VnYn/3PwhK3EX1aCH3id0Uo7B/Vr6WwX2Koj2URX%2BD05gl4fHoeNs8e%2BNr79PGshMen5%2BHExnFy7WKxCGFft8XlneF4FDMbcTsmYdzAVgrHe7jaYcvcL5EYPRMPj8/C0d9Gw8neAgDg7GD5ynvq5FdHOMesMV1wbN0YpJ2coxBHsZqVHXFg%2BXCknpiDK3umIDTIT6GPtLwx5ozrhuv7pyLt5Byc3x6GgMbVX3v/umTp4kXwcK8I8/JGaNLQG6dPnXpt/9%2B3boFnzaowL2%2BEel61sHfPbrn9308Oh2fNqrCSmsDBxgJtAvxw6uRJYf9/N29i8MBgVK3sCgtTY1T3cMOUiEnIy8sr8XrXrl6FjYUp7K3NFfYtmDcXtWt4wMLUGO6uThg9cgRycnLkYjE2EMltnjWryp1j%2BS/L4N%2BiOWwtzWBsIEJaWprCdbp83gGVKznDvLwRXJ0c0D%2BoN%2B7duyfsjz5yGF07fQZXJwdYSU3gXdcLG9ave%2Bt4Hz9%2BjFGhw1HFzQUWpsZo3qQhzpw%2B/VbPN/rIYYV7Lt5ePldZV5wAKrOR6rACSB%2BsLv4fY/rIzzF06iacvngTQ3r6YsfiEHh2nIwHqU8U%2Bod/3R492n6Cr6esR8KNJLRsWA2bZg2Eb9/Z%2BDfhDgDA3NQYUatCceT0FXQcshgPUp/A3dkGqRlZwnkq%2Bo2XO69/oxpYOqknth2MlWuPWLwTK/84Jnz9ODNX%2BLWeWIzs3Hws3nAYHVt4vfY%2BpeWN8euU3jh06n%2BwtTKV2zeyb0sM7NIEA8PW4tK1%2B6hbwxk/h3%2BBjCfZWLzhCADAtYI1Dq4Ixertx/H9kl3IyMxBdTcH5OTmAwDuJKUq3FP/zo0woo8f9h2Lk2tf8%2BcJfFLLBTUrf6QQp6mJEf5aPASHTsZj6NSNqFn5Iyyd1Atpj7Ox4tlzMNDXw66lQ5D86DF6jV6Ou8lpcHa0RPrj7Nc%2BA12xZfMmjB0digWLluKT%2Bt5YOH8uOrQNwL9xCbC1tVXoH3P8OIK%2B6IHJU6ehTZt22LRxPbp17oiYU%2BdQo2ZNAIB75SqYM28hXF0rITs7GwvmzUH7Nv64GH8VNjY2SEiIR1FRERYu/hlubu6Ii7uIkMEDkZmZiR9n/CR3vfz8fPT5ogcaNW6CEzHH5fZt3LAe3307Dkt/WQEfn4a4cuV/GBjcFyKRCDN%2Bmi30q16jBnbtPSB8ra8v/89QVlYWWga0QsuAVgj7Vv7PZbGmzXwxeuwE2Ds44N7duxg/dhR6du%2BCw38/jelEzHHUrFUboaPGws7ODrt37cSAfn0glUrRpm27Usf71ZcDcCnuIlasWgsHB0dsWP8b2rbyw7nzl/DRRx%2BV6vk28GmIG7fvy8U/edJ3OHToIOrWq1fi/RG9DyKZTCbTdBD04cjIyIBUKoWk1kCI9Aw1Gkv0mlE4G/cfRkzfAuDpT5dX907Bko1H8NPKSIX%2B1/dPxfRf9%2BHnzdFC24afBiA7Jw/9J64BAEwZ1gE%2BnpXgFzy31HFsnj0Q5csZoc3gBUJb/K4ILFx3CAvXH37j8csivoC5qTG6hf5S4v41P/bD1VvJKCyUob1vbTQI/FHY9/u8wUh%2BlIGvIta/8p7W/NgP%2BfmFCP5uTanvKWbDWMTG35Y7b7Fvv2yjEAcADOzaGOEh7VHRbwLyCwoBPH2e7ZvXhlen7wEAA7o0xog%2BLeDZaQoKCopKHc/7lnp6oUau26ShN%2BrW%2BwRz5z%2B9flFREdxdnfBVyFCMHqNYdf2iZ3dkZWbijz93Cm1NGzWAp6cXFixeWuI1MjIyYGclxe59B%2BD7aYsS%2B8yeNRO//LwEl/93Xa792/Fjcf/ePfh%2B2gKjRw5H4sPn1bnhw4YgIf4y9uw/KLSNHT0Sp0%2BdRNSRowCeVsv%2B%2BnM7Tp6V/2GpJNFHDiPAzxf3H6TC3Fyx2viinX/tQLfOHZGemQsDA4MS%2B3zeoS1sbe3w868rShVvdnY2bCxMseWPP9G6TVuhT8P6deHfqjXCJ39f4nXe9Hzz8/Ph5vIRvgoZivHffvfG56BqxfGlp6fDzMzsvV1TKpXCceB6iA3LvfN5ivKycO%2BXnu819rKMQ8D0QTLQ10Odak6IOpkgtMlkMkSdTED92q4lHmNooI%2BcvHy5tuycPDSs4yZ83bZZLZy7dAvrZvTHfwenIWbDWPT7vOEr47C1NEWrxjWxenuMwr6R/fxx59B0xGwYixF9WkBP7%2B3/uvXu0ACuH1lh6s97Stx/4t/r8K3vAXfnp9WhWlU%2Bgo9XJew/dgnA06S4VeMauHIrGTsWheC/g9MQvWYU2jev/cpr1qnmBK%2BqTiXe0%2Bt413bFsXNXheQPACKPX4aHqz3MTY0BPH2%2BJ8/fwNxx3XHzwA84s2UCRvf3h1jMoZ28vDz8c%2B4sPm3xfNhcLBbj00/9cOpEyb8XJ0/EwPdT%2BWH2lv4BOPmK/nl5eVj%2B6zJIpVLUqu35ylgy0tNhaWEp13b4UBT%2B%2BH0L5i5YVOIxDXwa4p9zZ4Uh6xvXr2Pf3t1o1bqNXL%2BrV6/A1dkR1apUQt/evXDr1q1XxlEajx49wsYN69DAp%2BErkz8ASE9Ph4Xl83t6U7wFBQUoLCyEkZGR3HmMjI1x/NjREq9Rmue7868dSElJQe%2Bgfm91n2UBh4C1C4eA6YNkbVEe%2Bvp6SH70WK49OSUDHhXtSjzmQMxlDPviUxw9dxXXbz%2BEb30PfPapF/T0nn9Tcf3IGgO7NsH836IwY/l%2B1K3hglljuiCvoBDr/jqpcM4v2nvjcVYOtkfJVzQWbziCfy7fRmpGJhp4VsLkoR1gbyPF2Fl/lPoe3ZxtMGVYB/j1n4vCwpKrZT%2BtjIRZeSP8u20iCgtl0NMTYdKindi45wwAwNayPExNjDCqX0tELNqJifO2w79RdWycNQABg%2Bbj6NmrCucM6uiDy9fv48S/N0odKwDYWZnh5t0Uubbi3x87azOkPc6G60dWaP5JFWzccxqfD10CNycbzB3fHQb6evhhWclJrq54%2BPAhCgsLYWsr/%2BfX1s4OCQnxJR6TlJgIW7uX%2BtvaISkpUa5t966d6NMrEFlZWbB3cMDOPZGwtrYu8ZzXrl7FkkULMG368%2BHflJQUDAzui5Wrf3tl5SWwR0%2BkPHyIFs0bQyaToaCgAAMHDcaYcROEPp/U98ay5atQpYoHEhPvY%2BqUCPj5NsHZ2IswNTUt8byv8u34sVi6eCGysrJQ37uBXBX0ZVu3bMbZM6excPHPpY7X1NQU3g18MG3qFHhUrQY7Ozts3rgBJ0/EwM3dXe78b/N8V69cjpb%2BAahQocJb3W9ZwEkg2oUVwA9ExYoVFX4S%2BvFH%2BSG48%2BfPo0mTJjAyMoKTkxNmzJghtz88PBxeXvLvm/39998wNzfH8OHDUdbfBhg1cyuu3UrGv398h4xTczFnXFes2XECRUXP71ssFiE2/jYmLfwL/ybcwYo/jmHltuMY2KVxiefs81kDbNpzBrl5BXLt83%2BLwt9nr%2BDilXv4detRjJv9B77q3gyGBqX7mUssFmH1D33x/dLduHor%2BZX9uvh/jMDWn6DvhNXw6TkdA8LWYnjvFujV3vvZeZ7%2BFd95%2BAIWrDuE8/%2B7i59WRmL333El3pORxADdW9d76%2BpfaYnFYjx49BghUzbgn8u3sXX/OcxYvg8DXvF8STWaNffFyTOxOBR9HP7%2BrfBFz25ITlb8c3X37l10aNcKnTp3Rf8BzycmfT14ILoH9kTjJk1feY3oI4cxc/oPmLdgMWJOncPGLX9gz55dmDZ1itAnoFVrdO7SFbVq10ZL/wBs/2s30tPS8PuWzW99TyNGjsaJ0/9g55790NPTw4B%2BfUr8Hnbk8CF8OaAfFi/9BdVr1HireFesWguZTAY3l48gNZFg0cL56Na9h/D3qlhpn%2B%2BdO3cQuX8fgvoFv/X9EqkaK4DvSVFREe7fvy%2B8OPwuJk%2BejIEDn39TfvEn5oyMDPj7%2B8PPzw9Lly7FhQsX0L9/f5ibm2PQoEElnm/Xrl3o2rUrxo0bh7CwsHeOSxMepj5BQUEhbC3lqwa2VmZITMl45THdQn%2BBxFAfVlIT3HuQju%2BHfYYbL1StEh9m4PJ1%2BepJ/I3EEidqNKrjBg9Xe/Qet/KN8Z6%2BcBMGBnpwcbTElf9endAVMy1nhLo1XODpUQF9H5kYAAAgAElEQVRzxnYF8DQpFIvFeHx6Htp9vQhHTv8PPwzviJ9WRmLLvrMAgLir9%2BDsYInR/Vpi3V8n8TD1CfLzC3H5uvxL6AnXE9GwTiWF637u54VyRoZYt/P1M09LkpSSAbuXJqkU//4kPXz6e5L4MB35BYVySXf8jUQ42EhhoK8nN3ysa6ytraGnp4fk5CS59uSkJNjb25d4jJ29PZKTXuqfnAQ7O/n%2BJiYmcHN3h5u7O7wbNEDNapWxeuVyjB77fJLFvXv30KqlLxo0aIhFS5fJHX/kUBR2/bUDc2c/rQrKZDIUFRWhvJE%2BFi1ZhqB%2B/REx6Tv06NUb/YIHAABq1qqFrMxMhHw1CGPHf6uQNAGAubk53CtXwbVripXoN7G2toa1tTUqV6kCj6rVUNnVCSdPnEADHx%2Bhz9/RR9C5Y3vM%2BGkOevXuI3d8aeKt5OaGyKgjyMzMREZGBhwcHPBFz%2B5wdZX/u1Oa5wsAa1evhJWVFdq17/DW91sWiKBkBZAfBaJSrACqWXx8PMaPHw9nZ2f89NNPbz7gNUxNTWFvby9sJiYmwr5169YhLy8PK1asQI0aNRAYGIhhw4Zh9uzZJZ5r/fr16NSpE2bMmPHBJX8AkF9QiH8u34avt4fQJhKJ4Fu/Ck6df/3QZW5eAe49SIe%2BvhgdW3hh5%2BHzwr6Y2Ouo4iI/27Kysy1u3X%2BkcJ6gjj44e%2BkWLvzv7hvj9fSogMLCIjx4acj6VTIyc1C3y1R4B/4obL9sPYqEG4nwDvwRpy/cBAAYGxmiSCY/PFxYJBP%2Bsc0vKMTZS/%2Bhiov8MGFlF1vcup%2BqcN2%2BHRti15ELeFjCLOo3OXn%2BBhp97A59/effVlo0qIqEG4lIezbLNyb2OtycbOT%2BEajsbIv7D9J1OvkDAENDQ9T5uC4ORT2flFBUVIRDhw6ifgOfEo/xbuCDw4cOyrUdPBAJ71f0f/G8ubnPZ6XfvXsXAX7NUefjuli2fKVCsnb47xicPBMrbGHhk2FqaoqTZ2LRoePnAIDsrCyF48R6egDwytGFJ0%2Be4Mb1a7C3d3htvG9SVPT070Be3vN7ij5yGJ93aIvvf5iO4IGKPwS/TbwmJiZwcHBAamoqDuzfh3btP3tjPC8%2B3%2BJzrlm9Ej2/6PPadxXLMr4DqF1YAVSD1NRUbNy4EatXr8aZM2fQokUL/Pjjj%2BjUqZPQ54cffsAPP/zw2vNcunQJzs7P15/78ccfMWXKFDg7O6Nnz54YMWKEsIRCTEwMmjZtCkPD5zNzAwICMH36dKSmpsLCwkJoX7RoEUJDQ7FixQr06tVLVbf93s3/LQq/TO6Ns5du4cyzZWDKGUuw5s8TAIBfp/TGveR0hC3YAQD4pKYLHG3N8W/CHXxka45vv2wDsViE2aueL0mx4LcoHFo1EqP7%2B%2BP3yHP4pEZF9O/cCEOmbJC7tqmJETq1rINxs7cpxOVd2xWf1HTBkTNX8DgzBw1qu2L6qM7YsPu0kAgBQNVK9jDU14OF1ASm5SSoXeVpdfj8/%2B5CJpPh0jX5qt2DR0%2BQk1cg1747%2BgLGBgfg9v1UXLp2H15VK2DYF75Ys/2E0GfO6gNYO70/jp67iiNn/gf/htXRpmlNBAycJ3f%2BSk7WaPyxGzoOXVLi867kZI3yxhLYWZvBWGIgxHv5eiLyCwqxac8ZTBjUBksn9cKslZGo4e6IkJ7NMean5%2B89/rLlbwzu3hSzxnTB4g1H4O5sg9HB/sKSNbpu2PBQDOwfhLp166HeJ/WxcP5cZGVmos%2BzCQPBffvA8aOPMGXqNABAyJBv4N%2BiGebOmYXWrdtiy%2BaNOHf2DBYteVrBy8zMxPRpU9G2XQfYOzgg5eFD/LxkEe7dvYtOnZ9WlouTP2dnF0yb/hMePHggxFNceaxaTX69zHNnz0AsFgtLzQBAm3btMX/ubHh61UH9%2Bt64du0qJod/hzbt2kPvWWI1bswotG3XHs7OLrh37x6%2BnzwJenp66BbYQzhPYmIikhITce3q06rgxYsXYFreFE7OzrC0tMSpkydx9sxpNGzUGOYWFrhx/RoiJn2HSm5uQuJ75PAhdPqsHUKGfoOOnTojMfFpVd/Q0BCWzyaClCbeyP37IJPJUKWKB65du4oJY0ejikdV9Onbr9TPt9jhQ1G4eeMG%2BvUf8A5/MohUjwmgihQVFWHPnj1YvXo1duzYgSpVqqB3797Ytm0bHBwUf7odPHgwunXr9tpzOjo6Cr8eNmwYPv74Y1haWuL48eMYP3487t%2B/L1T4EhMT4eoqP/vV7tnL4YmJiUICePnyZQwZMgTLly8vVfKXm5sr95NsRkbJw6uasHX/OVhblEfYV21hZ2WK8wl38VnIImHigZO9pdxQo0RigEkh7eD6kTWeZOVi37E4BH%2B3BulPnidlZy/dQveRv2Dy0A6YMKg1bt5NweiZvwuTKop1DagLEUTYvFe%2BHQBy8/LRNaAuvh3cBhIDfdy8l4IF6w5h/toouX7bF3wFF0cr4euTm54OFxnXGVLqZxA6fQsmfd0O8yZ0h41Fedx/kI7lW4/JTajYceg8hk7diNH9/TFrTBf8779k9Bj9K47Hyi/xEfSZD%2B4mpeFATMkTDpaE9ULTepUV4vVoE4Zb9x8h40kO2n%2B9EHPHdcPx9WORkvYE05btEdYABIA7SWnoELIYM0Z2wunN43EvOQ2L1h/GrFWKy/booq7duuPhgweYHBGGpMRE1Pb0wp879wp/l2/fviVXtfJp2BCr1q5HxKSJmDRxAtwrV8bm37cLiZmenh4SEuLx29rVSHn4EJZWVqhX7xMcOPS38D5c1IFIXLt6FdeuXoV7RfmJCdn5pX8veNyEiRCJRIiYNBH37t6FtY0N2rZtj/ApU4U%2Bd%2B/eQZ8veuBRSgqsbWzQsFFjHDl6AjY2NkKfX5ctxdQpEcLXLX2fvne47NeV6B3UF%2BXKlcOf2//A95MnITMzE/YODvD3b4WxEyZCIpEAAH5bsxpZWVmYOX0aZk6fJpyrSdNm2H/wcKnjTU9PR9jE8bh75w4sLS3x2eedETFlqlDBK83zLbZq5XI08GkIj6ryC1/rFNGzTZnjSWW4DqCK3Lx5E66urrCwsMDy5cvx%2Beefq/V6K1aswJdffoknT55AIpHA398frq6u%2BPnn57PcLl26hBo1auDSpUuoVq0awsPDsXbtWpibmyMrKwtRUVElJqcvCg8PR0REhEK7NqwDSKQumloHkEjdNLkOoMvXWyCWKLEOYG4W/lvclesAqgjfAVSRChUqYMOGDfD29ka3bt3QtGlT/PLLLyV%2BjBHwdAi4fPnyr91etz6Wt7c3CgoKcPPmTQBPh2qSXnoZvPjrF18gNzU1xYEDB2BiYgJfX1/cvy8/zPiy8ePHIz09Xdhu375dmsdBREREWowJoIro6%2BsjMDAQe/bswa1bt9CuXTvMnTsX9vb26Nq1K3bs2IH8/OeLEA8ePBixsbGv3V4cAn5ZbGwsxGKx8PFQPj4%2BiI6OlrtGZGQkPDw85N7/AwALCwscOHAAZmZmaN68udxnaL5MIpHAzMxMbiMiInpbnASiXZgAqoGDgwPGjBmDuLg4HD16FHZ2dujfvz/GjXv%2BUU6WlpZwd3d/7fbiBI%2B5c%2Bfi33//xfXr17Fu3TqMGDECX3zxhZDc9ezZE4aGhggODkZcXBw2bdqEefPmITQ0tMQYzc3NERkZCQsLizcmgURERMoSiZTfSHU4CUTN6tWrh3r16mH27Nm4c%2BfOO51DIpFg48aNCA8PR25uLlxdXTFixAi55E4qlWL//v0ICQlB3bp1YW1tjbCwsFeuAfjiMa1atUKzZs1w%2BPBhpdYpJCIiog8DJ4HQWyl%2BmZeTQKgs4yQQKqs0OQmk0tCtEEtM3nzAKxTlZuL6gi6cBKIirAASERGR%2Bik7jMshYJViAkhERERqp%2BxEDk4CUS1OAiEiIiLSMawAEhERkdopO5OXBUDVYgJIREREaicWiyAWv3sWJ1PiWFLEIWAiIiIiHcMKIBEREakdh4C1CxNAIiIiUjvOAtYuHAImIiIi0jGsABIREZHacQhYuzABJCIiIrXjELB24RAwERERkY5hBZCIiIjUjhVA7cIEkIiIiNSO7wBqFyaAREREpHYiKFkBBDNAVeI7gEREREQ6hhVAIiIiUjsOAWsXJoBERESkdpwEol04BExERESkY1gBJCIiIrXjELB2YQJIREREaschYO3CIWAiIiIiHcMKIBEREakdh4C1CxNAIiIiUjsOAWsXDgETERER6RhWAImIiEj9lBwC5ifBqRYTQCIiIlI7DgFrFyaAREREpHacBKJd%2BA4gERERkY5hBZCIiIjUjkPA2oUJIBEREakdh4C1C4eAiYiIiHQMK4BERESkdhwC1i5MAImIiEjtmABqFw4BExEREekYVgCJiIhI7TgJRLswASQiIiK14xCwduEQMBEREZGOYQWQiIiI1I5DwNqFFUAiIiJSu%2BIhYGW2txUdHY327dvD0dERIpEI27dvl9vft29fhWu0atVKrs%2BjR4/Qq1cvmJmZwdzcHMHBwXjy5Ilcn/Pnz6NJkyYwMjKCk5MTZsyYoRDLli1bULVqVRgZGaFWrVrYvXv3W9%2BPKjEBJCIiIrUT4XkV8J22d7hmZmYmPD09sWjRolf2adWqFe7fvy9sGzZskNvfq1cvxMXFITIyEjt37kR0dDQGDRok7M/IyIC/vz9cXFxw9uxZzJw5E%2BHh4Vi2bJnQ5/jx4%2BjRoweCg4Pxzz//oGPHjujYsSMuXrz4DnelGhwCJiIiojKpdevWaN269Wv7SCQS2Nvbl7jv8uXL2Lt3L06fPo169eoBABYsWIA2bdrgp59%2BgqOjI9atW4e8vDysWLEChoaGqFGjBmJjYzF79mwhUZw3bx5atWqF0aNHAwCmTJmCyMhILFy4EEuXLlXhHZceK4BERESkdmKRSOlNHQ4fPgxbW1t4eHjgq6%2B%2BQkpKirAvJiYG5ubmQvIHAH5%2BfhCLxTh58qTQp2nTpjA0NBT6BAQEICEhAampqUIfPz8/uesGBAQgJiZGLfdUGqwAEhERkdqpahJIRkaGXLtEIoFEInmnc7Zq1QqdOnWCq6srrl27hgkTJqB169aIiYmBnp4eEhMTYWtrK3eMvr4%2BLC0tkZiYCABITEyEq6urXB87Ozthn4WFBRITE4W2F/sUn0MTmAASERHRB8PJyUnu60mTJiE8PPydzhUYGCj8ulatWqhduzbc3Nxw%2BPBhtGjRQpkwtR4TQCIiIlI7VS0Effv2bZiZmQnt71r9K0mlSpVgbW2Nq1evokWLFrC3t0dycrJcn4KCAjx69Eh4b9De3h5JSUlyfYq/flOfV717%2BD7wHUAiIiJSO7FI%2BQ0AzMzM5DZVJoB37txBSkoKHBwcAAA%2BPj5IS0vD2bNnhT5RUVEoKiqCt7e30Cc6Ohr5%2BflCn8jISHh4eMDCwkLoc/DgQblrRUZGwsfHR2Wxvy0mgERERFQmPXnyBLGxsYiNjQUA3LhxA7Gxsbh16xaePHmC0aNH48SJE7h58yYOHjyIzz77DO7u7ggICAAAVKtWDa1atcLAgQNx6tQpHDt2DEOGDEFgYCAcHR0BAD179oShoSGCg4MRFxeHTZs2Yd68eQgNDRXi%2BOabb7B3717MmjUL8fHxCA8Px5kzZzBkyJD3/1CeYQJIRERE6idSbjHod1kI8MyZM6hTpw7q1KkDAAgNDUWdOnUQFhYGPT09nD9/Hh06dECVKlUQHByMunXr4u%2B//5arKq5btw5Vq1ZFixYt0KZNGzRu3FhujT%2BpVIr9%2B/fjxo0bqFu3LkaOHImwsDC5tQIbNmyI9evXY9myZfD09MTWrVuxfft21KxZ892fp5JEMplMprGr0wcnIyMDUqkUkloDIdIzfPMBRB%2Bg1NMLNR0CkVpkZGTAzkqK9PR0uffo1H1NqVSKlnMOwsC4/DufJz/7CSJHtHivsZdlrAASERER6RjOAiYiIiK1Ez37T5njSXWYABIREZHavTiT912PJ9Up8wng/v37S93X399fjZEQERHpLlWtA0iqUeYTwFatWpWqn0gkQmFhoZqjISIiItK8Mp8AZmdnazoEIiIinaeqzwIm1SjzCeCrVggvKiqCWMxJ0ERERO%2BDWCSCWIksTpljSZFOZUBFRUWYOXMm3NzcYGRkhOvXrwMAIiIisGbNGg1HR0RERPR%2B6FQCOH36dCxatAgTJkyAvv7z4meVKlWwdOlSDUZGRERUthUPASuzkeroVAK4cuVKLFu2DMHBwdDT0xPavby8EB8fr8HIiIiIyjZlPgZO2RnEpEinEsDbt2%2BjSpUqJe7Lzc19z9EQERERaYZOJYAeHh6IiYlRaN%2B2bRtq166tgYiIiIh0A4eAtUuZnwX8ookTJ%2BLLL79EcnIyioqKsHv3biQkJOCXX37Btm3bNB0eERFRmcVZwNpFpxLALl26wNzcHBEREdDX18fw4cPh5eWFLVu2oHXr1poOj4iIiOi90KkEEAD8/Pzg5%2BcHAJDJZHyplIiI6D0QPduUOZ5UR%2BcSQAC4ePEiLl%2B%2BDACoXr06atSooeGIiIiIyjZ%2BFrB20akEMDExEb1798bBgwdhbGwMAMjJyYGvry/Wrl0LBwcHDUdIRERUNolFTzdljifV0alZwAMGDEBqair%2B%2BecfZGZmIjMzE%2BfOnUN6ejoGDhyo6fCIiIiI3gudqgAePHgQR48ehaenp9Dm6emJxYsXo1mzZhqMjIiIqGzjELB20akE0NHRscR2kUgEe3v79xwNERGRbmEOpz10agj4xx9/xNChQ3Hx4kWh7eLFixg%2BfDimT5%2BuwciIiIiI3p8yXwF0cHCQKxunpqbC09NTmASSnZ0NQ0NDfPPNN%2BjataumwiQiIirTOASsXcp8AhgeHq7pEIiIiHQeZwFrlzKfAH755ZeaDoGIiIhIq5T5BPBVioqKUFBQINdmaGiooWiIiIjKNg4BaxedmgSSnZ2NUaNGwdnZGYaGhjA2NpbbiIiISD1EKthIdXQqARw/fjx27NiBadOmwdDQEIsWLcL48eNhZ2eHFStWaDo8IiIiovdCp4aAt23bhhUrVqBFixYYPHgw/Pz84O7uDjc3N/z%2B%2B%2B8ICgrSdIhERERlklgkgliJYVxljiVFOlUBfPjwISpXrgwAMDMzQ2pqKgCgefPmOHTokCZDIyIiKtNEIuU3Uh2dSgBdXV1x69YtAICHhwf%2B%2BOMPAMC%2BfftgZmamydCIiIjKtOJJIMpspDo6lQD27t0bp0%2BfBgCMHj0as2fPhpmZGUJCQvDNN99oODoiIiKi90On3gEcO3as8OvWrVvj4sWLOH36NNzd3VG/fn0NRkZERFS2KTuMywKgaulUAviyypUrC%2B8EEhERkfpwEoh2KfMJ4LJly0rdd9CgQWqMhIiIiEg7lPkEcNKkSaXqJxKJmAASERGpCYeAtUuZTwDv37%2Bv6RCIiIh0Hj8KTruU%2BQSQ1GPfujCUN%2BXSOVQ2ZeYWvLkT0Qcoi3%2B26RkmgERERKR2Yii39pxOrVv3HjABJCIiIrXjELB2YUJNREREpGNYASQiIiK1E4kAMWcBaw2dqwCeOnUKAwYMgK%2BvL%2B7duwcA2LhxI06cOKHhyIiIiMousUj5jVRHpxLAHTt2oFmzZsjNzUVMTAxycnIAAMnJyfj%2B%2B%2B81HB0REVHZVfwOoDIbqY5OJYARERFYuHAh1q5dCwMDA6G9cePGOHv2rAYjIyIiInp/dOodwPj4eLRo0UKh3dzcHKmpqRqIiIiISDcoO4zLIWDV0qkKoK2tLW7cuKHQHhMTA1dXVw1EREREpBuKPwpOmY1UR6cSwH79%2BmH48OH4999/IRKJkJKSgt9//x2jRo3i5wATERGRztCpIeCJEyciPz8fPj4%2ByMnJQYMGDaCvr49hw4ZhxIgRmg6PiIiozBKLRBArUcZT5lhSpFMJoFgsxpQpUzBu3DgkJCTgyZMnqFWrFiwsLDQdGhERUZnGj4LTLjqVABYzMTHBxx9/rOkwiIiIiDRCpxLANm3avHb/7t2731MkREREukXZiRwcAVYtnUoAXVxc5L7Oz89HbGwsrl69ih49emgoKiIiorJPDCXfAQQzQFXSqQRwyZIlJbZPmDABMpnsPUdDREREpBl8pxJPl4f55ZdfNB0GERFRmcV1ALWLTlUAX%2BXcuXNyHw1HREREqsVPAtEuOpUA9uzZU%2B5rmUyG%2B/fv49ixYxgzZoyGoiIiIir7RCLl1vJjBVC1dCoBfPk9P7FYDC8vL4SGhqJDhw4aioqIiIjo/dKZBLCwsBAjRoyAh4cHpFKppsMhIiLSKVwGRrvozCQQPT09NGnSBCkpKZoOhYiISOcUvwOozEaqozMJIABUr14dt2/f1nQYRERERBqlUwngjBkzMGrUKBw4cACpqanIy8uT24iIiEg9RCr4j1RHZ94BBICAgAC5/7%2BssLDwfYZDRESkM7gMjHbRqQRwz549mg6BiIiISON0IgGcPHkyRo0a9crKHxEREakXK4DaRSfeAYyIiMCTJ080HQYREZHOEolESm%2BkOjqRAL68ADQRERGRLtOJIWAA/MmBiIhIgzgErF10JgGsUqXKG5PAR48evadoiIiIdAs/CUS76EwCGBERwY%2BAIyIi0hCxSASxElmcMseSIp14BxAAAgMDERQU9NqNiIiIyo7o6Gi0b98ejo6OEIlE2L59u9x%2BmUyGsLAwODg4wNjYGH5%2Bfrhy5Ypcn0ePHqFXr14wMzODubk5goODFSaWnj9/Hk2aNIGRkRGcnJwwY8YMhVi2bNmCqlWrwsjICLVq1cLu3btVf8NvQScSQL7/R0REpFma%2BCzgzMxMeHp6YtGiRSXunzFjBubPn4%2BlS5fi5MmTMDExQUBAAHJycoQ%2BvXr1QlxcHCIjI7Fz505ER0dj0KBBwv6MjAz4%2B/vDxcUFZ8%2BexcyZMxEeHo5ly5YJfY4fP44ePXogODgY//zzDzp27IiOHTvi4sWLb39TKiKS6cAUWbFYjMTERNja2mo6lA9eRkYGpFIpDp%2B/jfKmZpoOh0gtKtqU03QIRGrxOCMDro5WSE9Ph5nZ%2B/keXvzvxvR9/8LYxPSdz5Od%2BRhjAzzfOXaRSIRt27ahY8eOAJ5W/xwdHTFy5EiMGjUKAJCeng47OzusWrUKgYGBuHz5MqpXr47Tp0%2BjXr16AIC9e/eiTZs2uHPnDhwdHbFkyRJ8%2B%2B23SExMhKGhIQBg3Lhx2L59O%2BLj4wEA3bt3R2ZmJnbu3CnE06BBA3h5eWHp0qXv/EyUoRMVwKKiIiZ/REREJLhx4wYSExPh5%2BcntEmlUnh7eyMmJgYAEBMTA3NzcyH5AwA/Pz%2BIxWKcPHlS6NO0aVMh%2BQOefuRsQkICUlNThT4vXqe4T/F1NEFnJoEQERGR5oghghhKTAJ5dmxGRoZcu0QigUQieevzJSYmAgDs7Ozk2u3s7IR9JY0e6uvrw9LSUq6Pq6urwjmK91lYWCAxMfG119EEnagAEhERkWYVLwOjzAYATk5OkEqlwjZt2jTN3tgHihVAIiIi%2BmDcvn1b7h3Ad6n%2BAYC9vT0AICkpCQ4ODkJ7UlISvLy8hD7JyclyxxUUFODRo0fC8fb29khKSpLrU/z1m/oU79cEVgCJiIhI7VQ1C9jMzExue9cE0NXVFfb29jh48KDQlpGRgZMnT8LHxwcA4OPjg7S0NJw9e1boExUVhaKiInh7ewt9oqOjkZ%2BfL/SJjIyEh4cHLCwshD4vXqe4T/F1NIEJIBEREald8ULQymxv68mTJ4iNjUVsbCyApxM/YmNjcevWLYhEIgwfPhzff/89duzYgQsXLqBPnz5wdHQUZgpXq1YNrVq1wsCBA3Hq1CkcO3YMQ4YMQWBgIBwdHQEAPXv2hKGhIYKDgxEXF4dNmzZh3rx5CA0NFeL45ptvsHfvXsyaNQvx8fEIDw/HmTNnMGTIEBU82XfDIWAiIiIqk86cOQNfX1/h6%2BKkLCgoCKtWrcKYMWOQmZmJQYMGIS0tDY0bN8bevXthZGQkHLNu3ToMGTIELVq0gFgsRufOnTF//nxhv1Qqxf79%2BxESEoK6devC2toaYWFhcmsFNmzYEOvXr8fEiRMxYcIEVK5cGdu3b0fNmjXfw1MomU6sA0iqw3UASRdwHUAqqzS5DuC8gxeUXgfwmxa13mvsZRkrgERERKR2Yij5WcBKLCFDipgAEhERkdq9uJTLux5PqsNJIEREREQ6hhVAIiIiUjsxlKs6sWKlWkwAiYiISO1EIhFESozjKnMsKWJCTURERKRjWAEkIiIitRM925Q5nlSHCSARERGp3bt%2BmseLx5PqcAiYiIiISMewAkhERETvBWt42oMJIBEREakdF4LWLhwCJiIiItIxrAASERGR2nEdQO3CBJCIiIjUjp8Eol2YABIREZHasQKoXZhQExEREekYVgCJiIhI7fhJINqFCSARERGpHYeAtQuHgImIiIh0DCuAREREpHacBaxdmAASERGR2nEIWLswoSYiIiLSMawAEhERkdpxFrB2YQJIREREaicSPd2UOZ5Uh0PARERERDqGFUAiIiJSOzFEECsxkKvMsaSICSARERGpHYeAtQsTQCIiIlI70bP/lDmeVIfvABIRERHpGFYAiYiISO04BKxdmAASERGR2omUnATCIWDV4hAwERERkY5hBZCIiIjUjkPA2oUJIBEREakdE0DtwiFgIiIiIh3DCiARERGpHdcB1C5MAImIiEjtxKKnmzLHk%2BpwCJiIiIhIx7ACSERERGrHIWDtwgoglXk2pgaoWaE86riYoqqDCcoZvvqPfRX7cqhb0Uxhc7c1Fvo4mEtQ4yMTeDmbwtPJFJXtyqGcoZ7CucyM9VHVwQR1nvVze%2BEcxazKG6CaownquJiitlN5OFkalRiXRF/09HrOpgr7zMvpo8ZHT89R3dEEZsbyP9eVdD91K/Xc7F8AACAASURBVJrBzsxQ6ONma4xaz55R7QrlUdHaCAZ6JX%2BzfV0semLAydIItZ%2Bdq8ZHivGQ6i3/eTHqVHfHR1bl4d%2B8Ic6dOfXKvmtW/op2LZvDrYIN3CrYoFO7gBL7/y/%2BMnp1%2BxyujlZwtpXCr2kD3Ll9S9gfOvQr1KvlgQrWpvBwccAX3TvhSkK8sP9RSgq6dWyLGu7OcLQ0QW0PV4wNHYbHGRlCn6PRR2Bd3kBhS0pKFPo8fvwY344JhVc1N1SwNkXrFk1w7uxpYX9%2Bfj4ivhuPJvW94GwrRQ13Z3w9sC/u37%2BncE/79%2B6Gf/OGqGBtCrcKNugd2Fluf0mx/LFlU4nP8WTMMdhJjdDcp%2B4rnzXJK54FrMxGqsPvzFSmWZTTRwVLI9xKyUFmbiFszQxR2c4EcXefoKBIptD/WnIWRC98l9EXi1Dd0QSpWQVCW05%2BIW6lFCC3oAhikQh2ZoaoYl8OF%2B88P6d5OX24WBnjbloOHmcXQiQCjA3kE09bM0PYmRniTurT2PREIhjql5ycutqUw5OcApgYyf%2BVNZHooZKNMe6m5iI9uwCWJgZwszXG5XuZyMkvAgD8e/ux3DFSY324WBkhNStfaHucU4jE9DzkFxTBQF%2BMChYSVLIxRkJiVqljEQGobGeCgsIiXHuQjfzCIhjqiVFYwnMm1dm2dTO%2BGz8aP81bhLr16mPpovno2rEtTpyLg42trUL/Y38fQaeu3fFJAx8YSYwwf85MdPmsDY6d/hcOjh8BAG5cv4a2/s3x//buPLypMtHj%2BDdpk3Tf6EahlB0KV1YViiCL7IKo4AIKKMugwriDCwJFnPHiDCheFXV0AB3RwQ0URGQfYEBnWAURoVgBKWUrdE%2Ba5Nw/amNjAUUaGujv49Pnoee85%2BQ9aUx%2Bebdzx7C7eWziZMLDI/h29zfYbD9/QWnZug2DbhtC7eRkcnJO8tyfpzFoQF%2B27NpLQEAAZrOZ3tf354nJU4mNjeP7jAwmPHw/OTljeX3O21512rR1F%2BEREZ7f4%2BJ%2BrveDY8fw7Te7eOVvc0msWZP335vPwP69%2Bfd/d1AzqRZFhYXs2LaVRx6bSPMrWnD6VA5PTniYO2%2B9iZXrvvSc59OFH/HQH%2B9h4pRpdOrcFZfTye5vdlV4fv7v1Tfo1qOX5/fIyKgKZU6fOsXYP4zg2i7dOHY0%2B7f8mYTS94gLawGUymQyDEPvzvKb5ebmEhkZyZodBwkLj/j1A6pY05qhFNhdHDxZ7Nl2Re0wjuY5yD7t%2BNXj4yOsJEXZ2HEwj7PlGLMJWqdE8N2RAvKKXZ7HOHzKzon8kjMeE2CGFrXD2Xe00HPM2dSKtmEJMJFX7KJ2TBDbD/wc6OrFBWM2QcbRIs%2B2JjVDKHK4OXCi%2BEyno0F8MGaTib3ZFcNdmcjgQBrEB7PlB%2B/weK66xIZbSIywsfPH/HNez6WgblxIVVfhN%2BvZpQOt21zJ9JkvAuB2u2nRpB6j7xnLA49M%2BNXjXS4XDWrHMX3GLG4bMhSAUcPvwGIJZPYb835zPXbt3EHn9m35z45vqVe/wRnLvP7K//HSrJns2PM9UNoCeGPf7mQcOkZkVMWgVVRURN3EaN7%2B50f07N3Xs71bx6vp3qM3T055%2BoyPs2Xzf%2BjZuQPbdmdQO7kOTqeT1s0a8tjEydw5fMRZryE2zMJb735A3/4Dznmto4bfQYMGDTEHBLB08SLWbNx8zvL%2BJC83l3pJNTh9%2BjQRERfnPbzsc2Pxf78nNOz3P2ZBfi79rqx3Uet%2BOVMXsFy2TECI1UxusdNre16xkzBbxS7bM4kNs3CyoOSs4c8ExIVbcboNCh2lLW4hVrOnJS%2B1ZigtaofRMD6EoHItgBFBgWACS4CZZkmhXFE7jHpxwRW6XcODAogOsZw1zIXZAioEyNwiF6Fnub5As4nI4ECO5589/AaYISbMQoHd%2B7y/Vpeo4EDy7U7q1AiiRXIYzZJCSYy0nrGsVA6Hw8H2rVvo3PU6zzaz2Uznrt34z1ebftM5CgsLcZaUEBUdA5QGyOXLPqNBw8bcMqAvTesm0bNLBz77dNFZz1FQUMD8t%2BeRUrcetWonn7FMVtZhFn%2BykA4dO1XY16XDlTRrkMzA/r35cuMGz3an04nL5SLI5j00Ijg4mE3lyv1SXm4uJpPJ03q3Y9sWsg7/iNlsputPj3XbTf3YvWtnhWMnPHw/jesk0qNzGu%2B8NYdftpHMf3suP2TuZ/yTk876%2BHJmZbOAL%2BRHKo8CoFy2AgNMmEwmnC7vN/ASl4El4Ndf%2BiFWM8HWAI7nVQxLkcGBtKoTTuuUcOIjrOw9UuDp6rT9FPRqRtnIOm1n39FCXG6DJokhlD2s1VPGyqGTxew/VkSg2UTjxBBPN0eA2UTd2GAyjxedNYAGBpgocbm9tjld7rOO36sRZsHlhlOFzgr7akXbaFUnnFZ1IrAGmNhXrlXxt9TFZjETHWrBBOzLLiTrlJ2ECCs1FQJ95sSJ47hcrgpdvXHxCRwtN47uXJ6e9ASJNZM8IfLYsaMU5Ofz4szn6NajJ%2B9/8hnX97%2BR4UNuYcO6f3kd%2B/fXZ5OSEEVKQhQrv1jGB58sxWr1/nuPvutOkuMiuKJRCuEREbzw8uuefQmJifx11svMeeefzH3nn9SqXZsBfbqzfdsWAMLDw7mqXXv%2BOv1PZGUdxuVyseC9d/jPl5u8xgmWV1xczNRJT3DzLbd5upUzvy9tcXzuz9N4eMKTzP9gIZFR0Qzo052ckyc9xz7%2BVDpvvjWfDz5dSv8BNzPhoT/yt9kvefZn7NvLtMkTmf3GPAIDNYLqfJkq4T%2BpPAqAl4D09HRMJpPXT9OmTb3KFBcXM3bsWGrUqEFYWBgDBw4kO/vnsSmZmZmYTCa2bdvm2ZaXl0fXrl1p1qwZhw4dumjXc6mIDbdS6HB5WvbKyyt2svtwPnuOFJJb5KR%2BXAiBv/h6euSUnVOFTgodbjKPF2EA0SEWoLTl0GwyceBEMbnFLgrsLr4/VoQt0Ex4UGnrXUqNIE4WlJBvP3cX8fldU2mL5pkGfhw57WD34QK%2BO1IAQL3Yn1tdfmtdnC6DH04UU%2Bhwk1PoJOu0g7hwBUB/NWvGc3z84QLmvfs%2BQUGlf2%2B3u/T13vv6G7h33INc0aIVDzwygZ59rmfum697HT/otiGs2vAfPvl8FQ0aNWLksMEUF3u3ED8z/a%2BsWv8Vb//zIzL372fS44969jVq3IS7Rv6BVq3bcnX7Drw4%2Bw2uapfGqy/N8pR55W9zMQyDKxqlkBQTyt9mv8TNt9yG2VTx46ukpISRwwZjGAZ/feFlz3a3UXpND41/nP433kyr1m35v1ffwGQysejjDzzlHn18Iu3SrqFFy9bc//B4xj34KC/NmgmUdpWPGTGUCRMn07BR49/1fIv4E32FqQLFxcXk5eURFxf3m49p3rw5K1as8Pz%2By2%2BfDz30EEuWLOH9998nMjKScePGcfPNN7Nhw5m7SY4dO0afPn0wm82sW7eOGjVq/L6L8WNOl4FhGAT%2BojXMcoZWs18ymyAm1MLhHPsZ97sNsDsN7M7S8Na8Viix4ZbSiRQ/tTgWlfz8GAbgcBqeruGyMsXlyjjdBk53WRkX4cGBRJnwmq1rMplokxLODyeKOZFfgvMMrZmBAWbP%2BcsLswUQZAlgf7mWvfJcbgOX28DuhP3HimiRHE6ozUGB/bfVpeSn57u84pLSSSWmn54DqVw1asQSEBDAsaNHvbYfO5pNfELiOY99adZMZs18jg8//Zzm/9PC65yBgYE0aZrqVb5xk6Ze3bMAEZGRRERG0qBhI668uh0Na8ex5JOFDLz1dk%2BZhIREEhISadSkKdHR0fTr2ZVHHp9IYmLNM9arzZVXeT1OvfoN%2BHTZKgoKCsjLyyUxsSYjhw0hpV49r%2BNKSkoYOXQwhw78wMdLlntNKklIKH2s8tdks9lIqVePHw8ePOtz1Paqq5kx/U/Y7XaKi4rYtmUzX2/fxuOPPACUhmXDMEiIDOL9RUu5tkvXs55LdC9gf6MAWAWys7Np1KgRffv2Zfjw4fTr1w%2BLxXLOYwIDA0lMPPMb%2BunTp3nzzTeZP38%2B3bp1A2DOnDmkpqayadMm2rdv71X%2B4MGD9OjRg1q1arFo0SLCwsIq58L8jAEUOtxEBAVyulyXZ3hQIEfP0K1bXnSoBZMJThSceRLHL5kweWYPF9pduA2DIIvZaxydNdCEw1ka%2BPJ/GrcXZDFT4ir9d4C5dIye/acye7IKvB4jKiSQxEgb32YVeAJsvt1FeFAAR39eWYOIoIAK4/cAaoSXjusrH0x/9bp%2BesP9TXUpdhET5v06Dgo043C6Ff58xGq10rJ1G/61ZpVn4oLb7eZfa1Yzasx9Zz3uxef/yvN/eZb3Fy6hdZsrK5yzddsr2bd3j9f2jL17qZ2cctZzGkbpFwCH48xfmkrrVvpKcNjPXmbnju2ewFZeaGgooaGhnMrJYfXKL5gy7VnPvrLwtz9jHws/W07ML77QtmrdBpvNxr6939G%2BQ0fPMQd/%2BIHadeqcsy5R0dHYbDYsFgvrvtzqtf/vf3uVdWvXMOcf71Gnbr2znEXKmLiwmbzKf5VLAbAKpKSksHHjRt566y3GjBmD2%2B1myJAhDB8%2BnLZtz7ym1N69e0lKSiIoKIi0tDSeffZZ6vz0xrV582ZKSkro3r27p3zTpk2pU6cOGzdu9AqAe/bsYfz48Vx55ZW8%2B%2B672Gw2315sFcs%2BbaduXDAFdheFjtJlYMwmEyfySoNd3dggHE6Dw6e8P5BqhFk4VeissISJ2QSJkTZOFzkpcboJDDARF27FEmgi56ew6DbgWJ6DpCgbDqcbh9PwTIYoW3rF7nRzqrCE5JggfjhRjMttUCvaRnGJ2zOpo/gXQa3EZWD8YvvRXAdNEkOIj7B6loEJsQXwwy8maphNpd3Ph3IqTuAIsQYQajOTb3fhchnYLGaSokrrUnAedTmW5yA%2BwkpyTBBHcx3YLGYSo6wczf312dby%2B9077kHGjRlBqzZtadP2Kl59%2BUUKCwsYfOdwAO4bfRc1k2oxaeqfAHhx5l/432fSee3vb5OcUtczli40NMzzZXDcA48wavgQ0q7pRMdru7Bq%2BTKWLV3MoqWlvRCZ3%2B9n4Yfv0%2BW67sTGxnH4x0PMmvkXgoKD6d6zDwDLly3l2NFsWre5ktCwML7d/Q3pEx%2BnXVoH6qTUBeDVl2dRJ6UeTVObYS8u5h/z/s66tav5YNFSz/WtWvEFhmHQsFFjvt%2BfQfrEx2jUuAlDht4FlAa5u%2B%2B8jR3btjL/g4W43C7PNUVHx2C1WgmPiOCukX9g%2Bp%2BeplbtZGon1%2BGlWTMAGHDTIAA%2B/2wxx45mc%2BVV7bAFBbFm1Qpe%2BOv/ct/9DwOlk2tSm/%2BP13MfGxdPUJCtwnaRS4ECYBVp27Ytbdu2ZcaMGSxdupS33nqLa665hkaNGjF8%2BHCGDh1KQkICAO3atWPu3Lk0adKErKwspk6dSqdOndi5cyfh4eEcOXIEq9VK1C%2BWUUhISODIEe%2BB0sOGDeOaa67h/fffJyDg12fC2u127OW%2BreeWW8T1UpBT6CTwZDFJPy1fUuRwsze70LNenzXQjIF3uCkdhxfoGQtXnkFpq12NsGACA0onmBQ6XOzJKvAKQ4dO2jGMsmVaTBTYXXx3pJDyPc/fHysiOSaIhvEhgEFeseucS7OcSYHdxf5jRdSKtlEr2oa9xE3G0aIKgS3mp8kZJ8%2BwLI3bMIgKsZAUZcNsNlHiNMgtcpJ1uui8Wu5KXAZ7swupHWOjWa1QSpwGR3MdHPkNy%2B3I73fToFs5cfwY//vMVI5mH%2BF/WrRkwceLif/p/ePQwYOYzT8PE5jzxms4HA7uvvM2r/OMf2ISj02cDMD1N9zIX2e9zAsznuPJ8Q/RsFFj5ryzwNN6ZgsKYtO/1/Payy9y6lQOcfEJpF3Tkc9W/MszISUoKJi3577JU48/isNuJ6l2Mv1uuJEHHv55aRqHo4QpT04g6/CPBIeE0Kz5FXz46TI6de7iKZN7%2BjTPpD/F4R8PERUdQ/8BNzFxyjRPr0nW4R/5fMmnAHRJ827NXPjZCjpe2xmA9D9NJyAwkPtG3UVRcRFtr7yaj5d8QVR0NAAWi4W/vz6bpx5/FAyDevUb8PSzf2HY3aMu7A8kHmZMmC%2BgH9esNsBKpXUA/UhWVhbDhg1jxYoVPPDAA7zwwgtnLHfq1ClSUlKYOXMmI0eOZP78%2Bdx9991eQQ3g6quvpmvXrkyfPp3MzEzq1avHoEGDWLhwIfPnz%2BeWW2751Tqlp6czderUCtsvlXUARX6PS2kdQJHzUZXrAK7Y8gOhF/C5UZCXS/c2KVoHsJJoFnAVMwyDf/3rX4wePZrU1FT27dvH5MmTefjhh896TFRUFI0bN2bfvn0AJCYm4nA4OHXqlFe57OzsCuMGJ06cyOTJkxkyZAgLFiz41fo98cQTnD592vNz8BwDpkVEROTSoC7gKvLdd9/x9ttv849//IPjx497WuY6d%2B7sdSuyM8nPzycjI4OhQ0tX7W/bti0Wi4WVK1cycGDpvS337NnDgQMHSEtLq3D8pEmTMJvN3HHHHRiGwW233VahTBmbzXbZjxMUEZGLQLNA/IoCYBU4cOAAqampdOnShalTpzJw4EBCQ0PPWv7RRx%2Blf//%2BpKSkcPjwYaZMmUJAQACDBw8GIDIykpEjR/Lwww8TExNDREQEf/zjH0lLS6swA7jMxIkTCQgI4I477sDtdnvOJSIi4gsXupizFoKuXAqAVSA2Npbvv//eM4v31xw6dIjBgwdz4sQJ4uLi6NixI5s2bfJaR/D555/HbDYzcOBA7HY7vXr14pVXXjnneR9//HHMZjNDhw7FMAyGDBlyQdclIiJyVhe4DqDyX%2BXSJBA5L2WDeTUJRC5nmgQil6uqnASyctuBC/rcyM/L5bpWdTQJpJKoBVBERER8TkMA/YsCoIiIiPieEqBf0TIwIiIiItWMWgBFRETE5zQL2L8oAIqIiIjPmS5wFvAFzSCWCtQFLCIiIlLNqAVQREREfE5zQPyLAqCIiIj4nhKgX1EXsIiIiEg1oxZAERER8TnNAvYvCoAiIiLic5oF7F8UAEVERMTnNATQv2gMoIiIiEg1oxZAERER8T01AfoVtQCKiIiIz5kq4b/zkZ6ejslk8vpp2rSpZ39xcTFjx46lRo0ahIWFMXDgQLKzs73OceDAAa6//npCQkKIj49n/PjxOJ1OrzJr1qyhTZs22Gw2GjZsyNy5c3/3c3QxKQCKiIjIZal58%2BZkZWV5ftavX%2B/Z99BDD/Hpp5/y/vvvs3btWg4fPszNN9/s2e9yubj%2B%2ButxOBz8%2B9//Zt68ecydO5fJkyd7ynz//fdcf/31dO3alW3btvHggw8yatQoli1bdlGv8/dQF7CIiIj4XFXMAg4MDCQxMbHC9tOnT/Pmm28yf/58unXrBsCcOXNITU1l06ZNtG/fni%2B%2B%2BIJvvvmGFStWkJCQQKtWrZg2bRqPPfYY6enpWK1WXn31VerVq8eMGTMASE1NZf369Tz//PP06tXr91/sRaAWQBEREfE5UyX8nK%2B9e/eSlJRE/fr1ueOOOzhw4AAAmzdvpqSkhO7du3vKNm3alDp16rBx40YANm7cyBVXXEFCQoKnTK9evcjNzWXXrl2eMuXPUVam7Bz%2BTC2AIiIicsnIzc31%2Bt1ms2Gz2SqUa9euHXPnzqVJkyZkZWUxdepUOnXqxM6dOzly5AhWq5WoqCivYxISEjhy5AgAR44c8Qp/ZfvL9p2rTG5uLkVFRQQHB1/YxfqQAqCIiIj4XiXNAk5OTvbaPGXKFNLT0ysU79Onj%2BffLVq0oF27dqSkpLBgwQK/DmYXiwKgiIiI%2BFxl3Qru4MGDREREeLafqfXvTKKiomjcuDH79u2jR48eOBwOTp065dUKmJ2d7RkzmJiYyFdffeV1jrJZwuXL/HLmcHZ2NhEREX4fMjUGUERERC4ZERERXj%2B/NQDm5%2BeTkZFBzZo1adu2LRaLhZUrV3r279mzhwMHDpCWlgZAWloaX3/9NUePHvWUWb58ORERETRr1sxTpvw5ysqUncOfKQCKiIiIz5XNAr6Qn/Px6KOPsnbtWjIzM/n3v//NTTfdREBAAIMHDyYyMpKRI0fy8MMPs3r1ajZv3szdd99NWloa7du3B6Bnz540a9aMoUOHsn37dpYtW8ZTTz3F2LFjPaHznnvuYf/%2B/UyYMIFvv/2WV155hQULFvDQQw9V9tNX6dQFLCIiIj53sW8EcujQIQYPHsyJEyeIi4ujY8eObNq0ibi4OACef/55zGYzAwcOxG6306tXL1555RXP8QEBASxevJh7772XtLQ0QkNDGT58OE8//bSnTL169ViyZAkPPfQQs2bNonbt2rzxxht%2BvwQMgMkwDKOqKyGXjtzcXCIjI1mz4yBh4RG/foDIJahuXEhVV0HEJ/Jyc6mXVIPTp097jaPzpbLPja/2HL6gz438vFyubpJ0Uet%2BOVMXsIiIiEg1oy5gERER8bnKmgUslUMBUERERHyuKm4FJ2enLmARERGRakYtgCIiIuJzF3sWsJybAqCIiIj4nhKgX1EXsIiIiEg1oxZAERER8TnNAvYvCoAiIiLiexc4C1j5r3KpC1hERESkmlELoIiIiPic5oD4FwVAERER8T0lQL%2BiACgiIiI%2Bp0kg/kVjAEVERESqGbUAioiIiM/pXsD%2BRQFQREREfE5DAP2LuoBFREREqhm1AIqIiIjvqQnQrygAioiIiM9pFrB/URewiIiISDWjFkARERHxORMXOAu40moioAAoIiIiF4GGAPoXdQGLiIiIVDNqARQRERGf00LQ/kUBUERERC4CdQL7EwVAERER8Tm1APoXjQEUERERqWbUAigiIiI%2Bpw5g/6IAKCIiIj6nLmD/oi5gERERkWpGLYAiIiLic7oXsH9RABQRERHf0yBAv6IuYBEREZFqRi2AIiIi4nNqAPQvCoAiIiLic5oF7F/UBSwiIiJSzagFUERERHxOs4D9iwKgiIiI%2BJ4GAfoVBUARERHxOeU//6IxgCIiIiLVjFoARURExOc0C9i/KACKiIjIRXBhk0DUCVy51AUsIiIiUs2oBVBERER8Tl3A/kUtgCIiIiLVjAKgiIiISDWjLmARERHxOXUB%2BxcFQBEREfE53QrOv6gLWERERKSaUQugiIiI%2BJy6gP2LAqCIiIj4nO4F7F8UAEVERMT3lAD9isYAioiIiFQzagEUERERn9MsYP%2BiACgiIiI%2Bp0kg/kVdwCIiIiLVjFoARURExOc0B8S/KACKiIiI7ykB%2BhV1AYuIiIhUM2oBFBEREZ/TLGD/ogAo58UwDAAK8vOquCYivpNnc1Z1FUR8Ii8vF/j5vfxiP/aFzOQtq7tUDgVAOS95eaXB7/oOzaq4JiIi8nvl5eURGRl5UR7LarWSmJhIo3rJF3yuxMRErFZrJdRKTEZVfA2QS5bb7ebw4cOEh4dj0qJMPpebm0tycjIHDx4kIiKiqqsjUun0Gr%2B4DMMgLy%2BPpKQkzOaLNw2guLgYh8NxweexWq0EBQVVQo1ELYByXsxmM7Vr167qalQ7ERER%2BnCUy5pe4xfPxWr5Ky8oKEjBzc9oFrCIiIhINaMAKCIiIlLNKACK%2BDGbzcaUKVOw2WxVXRURn9BrXKRqaBKIiIiISDWjFkARERGRakYBUERERKSaUQAUERERqWYUAEVERESqGQVAkcvQnj17ePPNN4GqueenSGXbv38/%2B/btq%2BpqiFw2FABFLjNOp5PBgweTmZkJoFv2ySXvxIkTdOvWjZ07d1Z1VUQuGwqAIpeZwMDSOzzWqlULUAugXPpsNhsOh4Pk5GS9nkUqiQKgyGXGMAwsFgtxcXFVXRWRC%2BZ2uzl%2B/Dgul4vo6Gi1aItUEgVAkctAZmYmixYtAqCwsJAff/zRs08fmHIpOnLkCEVFRZjNZlwuFw6HQ69lkUqkAChyiXM4HMyaNYsxY8bw0UcfERoaitPpxGKxAKUtKCKXkqKiItq1a8fQoUMpKSnBZrMRFBSEyWRSF7BIJQms6gqIyIWxWq3ceeedFBUV8eSTT3L06FFatmzJyZMn%2Be9//0thYSFhYWEEBARQUFDAsWPHaNmyJXXr1q3qqoucUXBwMK%2B//jqDBw/mD3/4AyNGjCA4OJjc3FwKCwspKSmhuLgYq9WK1Wpl//79pKSkEBkZWdVVF7lk6F7AIpeJLVu28Nprr/HFF1/www8/UKtWLfLy8rDb7QQGBnq6z4KDg9mwYQMNGzas4hqLnNvKlSu54YYbqF%2B/PhkZGbjdbhISEnA6neTm5hISEkJgYCBms5mtW7cSGxtb1VUWuWQoAIpcgvbv38%2BSJUuw2%2B3UrVuXQYMGAbB161Zee%2B01Vq5cydChQ3nsscfIz8%2BnoKAAgLCwMJxOJ/Hx8VVZfZEKDh8%2BTGZmJjk5OfTo0QOr1QrAmjVrGDJkCGazmWeffZbIyEgCAgJwOBxYrVYsFgsNGzakfv36VXwFIpcWBUCRS8zOnTu59tpradu2LRkZGZhMJpKTk/n444%2BJjo5m27ZtzJ49m7Vr15Kens7tt9%2BOYRhe4wJF/MmOHTvo168fwcHBHDt2jOjoaNLT0%2BnVqxfx8fGsWbOG/v37c/fddzNz5kzPUkci8vspAIpcQoqLi%2BnTpw%2BNGzfmtddeIycnh6%2B//pr77rsPgMWLF1O3bl22bNnC7Nmz%2BfLLLxk/fjxDhw6t4pqLnNnx48fp3LkzAwYMYMyYMQQHBzN%2B/Hi%2B/PJLBg0axH333UdSUhIrVqzgxhtv5LbbbuOFF14gPDy8qqsucknTLGCRS0xBQQEdO3YEIDo6mmuvvZbPP/8cm83GTTfdBECbNm0YO3YszZs356WXXiIvL0%2BzJ8UvnThxgsLCQgYMGEBKSgrx8fHMmzePW2%2B9lUWL2CV%2BsQAADatJREFUFjFv3jzy8vLo3r07ixcvZs6cOTzxxBNVXW2RS54CoMglwjAMgoKCcDgcrFy50rPd7XZTu3Zt3nvvPXJzcxk1ahQArVq14qmnnmLhwoWEh4drDTXxSyUlJbhcLs841aKiIgCefvppevfuzezZs/nuu%2B8A6NKlC2vXrmXcuHFVVl%2BRy4W6gEX8XE5ODsHBwQQFBQHw%2Buuv8/LLL/PII48wbNgwoDQEms1m/vKXv/Dhhx%2ByZMkSatSoUZXVFjkrp9PpNY6vU6dOuN1uNmzYAIDdbsdmswHQsWNH4uPj%2BeijjzAMQ19kRCqJWgBF/NjWrVvp06cPu3fv9mzr3bs3jRo1Yt68eSxYsAAAs7n0f%2BX69etz7NgxnE5nldRX5Nds27aNfv36kZ%2Bfj8vlAmD27NlkZmZy8803A6X3/i17DXfs2BG73Q7orjYilUkBUMRPbd%2B%2BnQ4dOpCWlkbr1q092%2BvUqcOkSZOwWCzMnj2bGTNmAKVjA7/66isSEhIIDg6uqmqLnFXZa7ply5aexckBGjVqxIsvvsiGDRvo378/RUVFnrB35MgRz91t1GElUnnUBSzih3bt2kW7du148MEHeeaZZ3C73Rw%2BfJji4mJiY2OJiorim2%2B%2BYfbs2Xz44YdAaTDct28fy5cv9wqMIv5gx44ddOjQgfvuu4/nnnvOs72oqIjg4GDcbjdffPEF99xzD4GBgaSmphIUFMTSpUvZuHEjV1xxRRXWXuTyowAo4mdOnz5Ns2bNiI%2BPZ%2BvWrQAMHTqUb775hqysLEJCQpgzZw6dOnUiJyeHkydP8sknn5CUlMRVV12lBXHF72RnZ9OmTRtSU1NZsWIFbrebBx98kL1797J3715Gjx7NTTfdROPGjSkuLuaZZ57h5MmTWK1WxowZQ2pqalVfgshlRwFQxA/9%2Bc9/Zs6cOQwZMoSlS5cSFRXFqFGjsNls/POf/2TRokWsX79eLX1ySdi1axfTpk1j7969TJgwgblz5%2BJ0Omnbti0ul4sPP/yQTp06MWnSJK9bFGrSh4jvKACK%2BJGy2bwAzz33HJMmTeK6665j7ty5ntu3lZSU0Lt3b8LDw/nggw8ICAjQh6T4vR07dvDiiy/y7rvv0qFDB9577z1iYmIwmUx89NFHjBgxgrlz53LjjTd6jlEAFPEd3U9HxI%2BYTCZPCJwwYQI1a9bEMAzi4uI8ZSwWCwkJCRQUFOiWWOL3ykJcixYtGDduHElJSXTu3JkaNWp4JnXcfPPNTJo0ibVr13oFQIU/Ed/Rp4eInyhbG638h97QoUNxOp2ebWUfpgEBAaSmpuJ2uzGZTPqgFL9V/rXZqlUr4uLiPF9oTCYThmFw6tQpoqOjadWqVVVVU6Ta0TIwIn6gLPy53W5atWrFkiVLPPvKlsqA0qVeJk%2BezLJlyxgxYgRms1nhT/zWmUYY1apVC6vV6vndZDLx/PPPk52dTefOnS9m9USqNbUAilSx8uGvQ4cOhIWF0bNnT8/%2BsoC3fv16Zs6cyaZNm1i2bBmNGzeuqiqLnFNZS3XZa3ffvn1kZGRgt9u54YYbPOXeffddVq1axUcffcSKFSuoW7duFdVYpPpRC6BIFSof/q6%2B%2BmrCwsJYvXo1FouF4cOH895773nKxsTE0KFDB1avXq3Zv%2BK3ysKfYRj8%2BOOPTJ06lVtvvZX%2B/ft7bvVWJjAwkKNHj7Ju3Tq9pkUuMs0CFqkivwx/UVFRLF26FIvFwujRo/n0009ZtWoVzZo18xxTfpawiD8qKioiNzeX8ePHc%2BTIETIzM7nvvvuYPn06M2fOZPDgwV7lCwsLCQkJqaLailRf%2BiQRqQJut9sT/tq3b%2B8V/kaMGMGqVatYs2aNV/gDFP7Ery1cuJDHHnuM9u3bc%2BjQIe6%2B%2B2527NhBYWEhsbGxXuGvrO1B4U%2BkaqgFUKSKGIZBx44dCQgIYOXKlZ7wt3btWhYvXqy7H8glwzAMDh06xNVXX02/fv1IS0tjxIgRABw6dIjhw4dz7733MmjQIFwul9fEJhGpGpoEInIRlf/w27t3LwMHDuSPf/wjFouFUaNGKfzJJclkMpGcnMzXX39NbGys176lS5dy8OBBz718Ff5E/INaAEUuoo8//hi3283AgQO9to8ZM4bFixezcuVKmjZtWkW1E6lcP/zwAz169GDcuHHcf//9VV0dESlHA4pELpJvvvmG%2B%2B%2B/v8K6fYcOHSImJkbhTy47W7dupW7duvTo0aOqqyIiv6AuYBEfK%2Bv23bVrF02aNPF0hZWpXbs2U6dO9VocV%2BRyMHPmTGJjYzWkQcQPqQtY5CJwuVykpqbSu3dvXnzxxTOW0Y3v5XKzefNmGjZsSGRkpF7fIn5GXcAiF8Hf//534uLimDZtmmeb3W7n5MmTrFu3DtCN7%2BXy06ZNGyIjIwG9vkX8jQKgyEWwfPlyWrZsSVhYGABffvkljz/%2BOO3atWP%2B/PmcOHGiimsoUvkU%2BkT8l7qARXzsww8/ZPTo0ezatYtvv/2WxYsX8/LLL3PnnXfSokULzY4UEZGLTgFQxIfsdjvjxo1j165dxMTEsHfvXtq1a8ftt99O3759PeV0izcREbmYNAtYxIeKi4tZuXIlJSUlNGzYkBUrVhAdHe3pCi6j8CciIheTWgBFfGzPnj2YzWYaNWoEaLaviIhUPQVAkYtIXb0iIuIPFABFREREqhk1RYiIiIhUMwqAIiIiItWMAqCIiIhINaMAKCIiIlLNKACKiIiIVDMKgCIiIiLVjAKgiIiISDWjACgiIiJSzSgAioiIiFQzCoAiIiIi1YwCoIiIiEg1owAoIiIiUs0oAIrIJSUzMxOTycS2bdsAWLNmDSaTiVOnTl30unTp0oUHH3zwrPvT09Np1arVeZ3TZDKxcOHCC6rXXXfdxY033nhB5xCRy5sCoIhcsLvuuguTyYTJZMJqtdKwYUOefvppnE6nzx%2B7Q4cOZGVlERkZ%2BZvK/1poExGpDgKrugIicnno3bs3c%2BbMwW6389lnnzF27FgsFgtPPPFEhbIulwuTyYTZfOHfQa1WK4mJiRd8HhGR6kQtgCJSKWw2G4mJiaSkpHDvvffSvXt3PvnkEwDmzp1LVFQUn3zyCc2aNcNms3HgwAEA3njjDVJTUwkKCqJp06a88sorXuf96quvaN26NUFBQVx55ZVs3brVa/%2BZuoA3bNhAly5dCAkJITo6ml69epGTk8Ndd93F2rVrmTVrlqfFMjMzE4CdO3fSp08fwsLCSEhIYOjQoRw/ftxzzoKCAoYNG0ZYWBg1a9ZkxowZ5/0c/ec//6FHjx7ExsYSGRlJ586d2bJlS4VyWVlZ9OnTh%2BDgYOrXr88HH3zgtf/gwYPceuutREVFERMTw4ABAzzXISLyWygAiohPBAcH43A4PL8XFhYyffp03njjDXbt2kV8fDzvvPMOkydP5k9/%2BhO7d%2B/mz3/%2BM5MmTWLevHkA5Ofn069fP5o1a8bmzZtJT0/n0UcfPefjbtu2jeuuu45mzZqxceNG1q9fT//%2B/XG5XMyaNYu0tDRGjx5NVlYWWVlZJCcnc%2BrUKbp160br1q3573//y%2Beff052dja33nqr57zjx49n7dq1LFq0iC%2B%2B%2BII1a9acMbydS15eHsOHD2f9%2BvVs2rSJRo0a0bdvX/Ly8rzKTZo0iYEDB7J9%2B3buuOMObr/9dnbv3g1ASUkJvXr1Ijw8nHXr1rFhwwbCwsLo3bu31/MtInJOhojIBRo%2BfLgxYMAAwzAMw%2B12G8uXLzdsNpvx6KOPGoZhGHPmzDEAY9u2bV7HNWjQwJg/f77XtmnTphlpaWmGYRjGa6%2B9ZtSoUcMoKiry7J89e7YBGFu3bjUMwzBWr15tAEZOTo5hGIYxePBg45prrjlrXTt37mw88MADFR6zZ8%2BeXtsOHjxoAMaePXuMvLw8w2q1GgsWLPDsP3HihBEcHFzhXOVNmTLFaNmy5Vn3u1wuIzw83Pj000892wDjnnvu8SrXrl0749577zUMwzDefvtto0mTJobb7fbst9vtRnBwsLFs2TLDMLz/HiIiZ6IxgCJSKRYvXkxYWBglJSW43W6GDBlCenq6Z7/VaqVFixae3wsKCsjIyGDkyJGMHj3as93pdHomdOzevZsWLVoQFBTk2Z%2BWlnbOemzbto1bbrnlvOq%2Bfft2Vq9eTVhYWIV9GRkZFBUV4XA4aNeunWd7TEwMTZo0Oa/Hyc7O5qmnnmLNmjUcPXoUl8tFYWGhpzu8zC%2BvMS0tzTPrefv27ezbt4/w8HCvMsXFxWRkZJxXfUSk%2BlIAFJFK0bVrV2bPno3VaiUpKYnAQO%2B3l%2BDgYEwmk%2Bf3/Px8AP72t795BSuAgICA312P4ODg8z4mPz%2Bf/v37M3369Ar7atasyb59%2B353fcobPnw4J06cYNasWaSkpGCz2UhLSzuvrtv8/Hzatm3LO%2B%2B8U2FfXFxcpdRTRC5/GgMoIpUiNDSUhg0bUqdOnQrh70wSEhJISkpi//79NGzY0OunXr16AKSmprJjxw6Ki4s9x23atOmc523RogUrV648636r1YrL5fLa1qZNG3bt2kXdunUr1CU0NJQGDRpgsVj48ssvPcfk5OTw3Xff/ep1lrdhwwbuv/9%2B%2BvbtS/PmzbHZbF4TTc52jZs2bSI1NdVT17179xIfH1%2Bhrr91KRwRkf8H1zsSzHaLhPoAAAAASUVORK5CYII%3D'
p110
sS'plot1'
p111
S'data:image/png;base64,iVBORw0KGgoAAAANSUhEUgAAAoAAAAHgCAYAAAA10dzkAAAABHNCSVQICAgIfAhkiAAAAAlwSFlzAAAPYQAAD2EBqD%2BnaQAAIABJREFUeJzs3XdcU9f7B/BPghIQTUCQVRFxIbioWAE3FcW9B2oVLa4WJ25rEWytq67WVVsVZ6u2dU%2BcfFUc1VIn1IGiPwk4gCjKUPL7w3JrROtILoncz9vXfZWce%2B6558YKD88ZkWm1Wi2IiIiISDLkxu4AERERERUuBoBEREREEsMAkIiIiEhiGAASERERSQwDQCIiIiKJYQBIREREJDEMAImIiIgkhgEgERERkcQwACQiIiKSGAaARERERBLDAJCIiIhIYhgAEhEREUkMA0AiIiIiiWEASERERCQxDACJyGguX76M5s2bQ6VSQSaTYfPmzQZt//r165DJZIiKijJou0VB%2BfLl0bdvX2N3g4iMhAEgkcRdvXoVgwYNQoUKFWBhYQGlUon69etj/vz5ePz4saj3Dg4Oxrlz5zB16lSsXr0aderUEfV%2BRdHFixcRERGB69evG7srRPQekWm1Wq2xO0FExrFjxw507doVCoUCffr0QfXq1ZGTk4MjR47gt99%2BQ9%2B%2BfbF06VJR7v348WOUKFECX3zxBb7%2B%2BmtR7qHVapGdnY3ixYvDzMxMlHsY26%2B//oquXbvi4MGDaNKkyRtfl52dDblcjuLFi4vXOSIyWcWM3QEiMo7ExEQEBQXB1dUVBw4cgJOTk3AuNDQUV65cwY4dO0S7/507dwAA1tbWot1DJpPBwsJCtPbfN1qtFllZWbC0tIRCoTB2d4jIiDgETCRRM2fOxMOHD7Fs2TKd4C9fpUqVMHz4cOH1kydP8NVXX6FixYpQKBQoX748Jk6ciOzsbJ3rypcvjzZt2uDIkSOoW7cuLCwsUKFCBaxatUqoExERAVdXVwDAmDFjIJPJUL58eQBA3759ha%2BfFxERAZlMplMWHR2NBg0awNraGiVLloS7uzsmTpwonH/VHMADBw6gYcOGsLKygrW1Ndq3b49Lly699H5XrlxB3759YW1tDZVKhX79%2BuHRo0evfmP/0aRJE1SvXh1nz55F48aNUaJECVSqVAm//vorAODw4cPw8fGBpaUl3N3dsW/fPp3rb9y4gc8//xzu7u6wtLSEra0tunbtqjPUGxUVha5duwIA/P39IZPJIJPJcOjQIQD//l3s2bMHderUgaWlJX744QfhXP4cQK1WC39/f5QpUwapqalC%2Bzk5OahRowYqVqyIzMzM1z4zEb0/GAASSdS2bdtQoUIF1KtX743q9%2B/fH%2BHh4ahduzbmzp2Lxo0bY9q0aQgKCipQ98qVK%2BjSpQuaNWuG2bNnw8bGBn379sWFCxcAAJ06dcLcuXMBAD169MDq1asxb968t%2Br/hQsX0KZNG2RnZ2PKlCmYPXs22rVrh6NHj/7ndfv27UNgYCBSU1MRERGBsLAwHDt2DPXr13/pPLpu3brhwYMHmDZtGrp164aoqChERka%2BUR/T0tLQpk0b%2BPj4YObMmVAoFAgKCsL69esRFBSEVq1aYfr06cjMzESXLl3w4MED4dpTp07h2LFjCAoKwnfffYfBgwdj//79aNKkiRCANmrUCMOGDQMATJw4EatXr8bq1avh4eEhtJOQkIAePXqgWbNmmD9/Pry8vAr0UyaTYfny5cjKysLgwYOF8smTJ%2BPChQtYsWIFrKys3uiZieg9oSUiycnIyNAC0LZv3/6N6sfFxWkBaPv3769TPnr0aC0A7YEDB4QyV1dXLQBtTEyMUJaamqpVKBTaUaNGCWWJiYlaANpZs2bptBkcHKx1dXUt0IfJkydrn/%2BWNXfuXC0A7Z07d17Z7/x7rFixQijz8vLS2tvba%2B/duyeU/fXXX1q5XK7t06dPgft9%2BumnOm127NhRa2tr%2B8p75mvcuLEWgHbdunVCWXx8vBaAVi6Xa48fPy6U79mzp0A/Hz16VKDN2NhYLQDtqlWrhLKNGzdqAWgPHjxYoH7%2B38Xu3btfei44OFin7IcfftAC0K5Zs0Z7/PhxrZmZmXbEiBGvfVYiev8wA0gkQRqNBgBQqlSpN6q/c%2BdOAEBYWJhO%2BahRowCgwFxBT09PNGzYUHhdpkwZuLu749q1a%2B/c5xflzx3csmUL8vLy3uia5ORkxMXFoW/fvihdurRQXrNmTTRr1kx4zuc9nxEDgIYNG%2BLevXvCe/hfSpYsqZMhdXd3h7W1NTw8PODj4yOU53/9/PtjaWkpfJ2bm4t79%2B6hUqVKsLa2xpkzZ97gaZ9xc3NDYGDgG9UdOHAgAgMDMXToUPTu3RsVK1bEN99888b3IqL3BwNAIglSKpUAoDPk%2BF9u3LgBuVyOSpUq6ZQ7OjrC2toaN27c0CkvV65cgTZsbGyQlpb2jj0uqHv37qhfvz769%2B8PBwcHBAUFYcOGDf8ZDOb3093dvcA5Dw8P3L17t8BctxefxcbGBgDe6FnKli1bYN6iSqWCi4tLgbIX23z8%2BDHCw8Ph4uIChUIBOzs7lClTBunp6cjIyHjtvfO5ubm9cV0AWLZsGR49eoTLly8jKipKJxAloqKDASCRBCmVSjg7O%2BP8%2BfNvdd2LwcyrvGrLFe0b7Dr1qns8ffpU57WlpSViYmKwb98%2B9O7dG2fPnkX37t3RrFmzAnX1oc%2BzvOraN2lz6NChmDp1Krp164YNGzZg7969iI6Ohq2t7RtnPAG8dQB36NAhYWHPuXPn3upaInp/MAAkkqg2bdrg6tWriI2NfW1dV1dX5OXl4fLlyzrlKSkpSE9PF1b0GoKNjQ3S09MLlL%2BYZQQAuVyOpk2bYs6cObh48SKmTp2KAwcO4ODBgy9tO7%2BfCQkJBc7Fx8fDzs7OZBY7/PrrrwgODsbs2bOFBTUNGjQo8N68aVD%2BJpKTkzF06FA0b94cbdq0wejRo1/6vhPR%2B48BIJFEjR07FlZWVujfvz9SUlIKnL969Srmz58PAGjVqhUAFFipO2fOHABA69atDdavihUrIiMjA2fPnhXKkpOTsWnTJp169%2B/fL3Bt/grXF7emyefk5AQvLy%2BsXLlSJ5A6f/489u7dKzynKTAzMyuQZfz%2B%2B%2B8LZDfzA9aXBc1va8CAAcjLy8OyZcuwdOlSFCtWDCEhIW%2BU7SSi9ws3giaSqIoVK2LdunXo3r07PDw8dD4J5NixY9i4caOwT1ytWrUQHByMpUuXIj09HY0bN8bJkyexcuVKdOjQAf7%2B/gbrV1BQEMaNG4eOHTti2LBhePToERYvXowqVaroLH6YMmUKYmJi0Lp1a7i6uiI1NRWLFi1C2bJl0aBBg1e2P2vWLLRs2RJ%2Bfn4ICQnB48eP8f3330OlUiEiIsJgz6GvNm3aYPXq1VCpVPD09ERsbCz27dsHW1tbnXpeXl4wMzPDjBkzkJGRAYVCgY8//hj29vZvdb8VK1Zgx44diIqKQtmyZQE8Czg/%2BeQTLF68GJ9//rnBno2IjI8BIJGEtWvXDmfPnsWsWbOwZcsWLF68GAqFAjVr1sTs2bMxYMAAoe5PP/2EChUqICoqCps2bYKjoyMmTJiAyZMnG7RPtra22LRpE8LCwjB27Fi4ublh2rRpuHz5sk4A2K5dO1y/fh3Lly/H3bt3YWdnh8aNGyMyMlJYVPEyAQEB2L17NyZPnozw8HAUL14cjRs3xowZM956wYSY5s%2BfDzMzM6xduxZZWVmoX7%2B%2BsIfh8xwdHbFkyRJMmzYNISEhePr0KQ4ePPhWAeCtW7cwcuRItG3bFsHBwUJ5r1698Ntvv2Hs2LFo2bKlSb0/RKQffhYwERERkcRwDiARERGRxDAAJCIiIpIYBoBEREREEsMAkIiIiEhiGAASERERSQwDQCIiIiKJ4T6A9Fby8vJw%2B/ZtlCpVyqAfQUVEROLTarV48OABnJ2dIZcXXg4oKysLOTk5erdjbm4OCwsLA/SIGADSW7l9%2BzZcXFyM3Q0iItLDzZs3hU98EVtWVhYsS9kCTx7p3ZajoyMSExMZBBoAA0B6K6VKlQIAmHsGQ2ZmbuTeEIkj6dC3xu4CkSgeaDSo5OYifC8vDDk5OcCTR1B4BgP6/Nx4mgP1xZXIyclhAGgADADpreQP%2B8rMzBkAUpGlVCqN3QUiURllCk8xC71%2BbmhlXLZgSHw3iYiIiCSGGUAiIiISnwyAPplHrjs0KAaAREREJD6Z/Nmhz/VkMHw3iYiIiCSGGUAiIiISn0ym5xAwx4ANiQEgERERiY9DwCaFASARERGJjxlAk8JwmoiIiEhimAEkIiKiQqDnEDBzVgbFAJCIiIjExyFgk8JwmoiIiEhimAEkIiIi8XEVsElhAEhERETi4xCwSWE4TURERCQxzAASERGR%2BDgEbFIYABIREZH4OARsUhhOExEREUkMM4BEREQkPg4BmxQGgERERCQ%2BmUzPAJBDwIbEAJCIiIjEJ5c9O/S5ngyG%2BVQiIiIiiWEGkIiIiMTHOYAmhQEgERERiY/bwJgUhtNEREREEsMMIBEREYmPQ8AmhQEgERERiY9DwCaF4TQRERGRxDADSEREROLjELBJYQBIRERE4uMQsElhOE1EREQkMcwAEhERkfg4BGxSGAASERGR%2BDgEbFIYABIREVEh0DMDyFlrBsV3k4iIiEhimAEkIiIi8XEI2KQwACQiIiLxyWR6LgJhAGhIHAImIiIikhhmAImIiEh83AbGpDAAJCIiIvFxDqBJYThNREREJDHMABIREZH4OARsUhgAEhERkfg4BGxSGE4TERERSQwzgERERCQ%2BDgGbFAaAREREJD4OAZsUBoBEREQkOplMBhkDQJPBfCoRERGRxDADSERERKJjBtC0MAAkIiIi8cn%2BOfS5ngyGQ8BEREREEsMMIBEREYmOQ8CmhQEgERERiY4BoGnhEDARERGRxDADSERERKJjBtC0MAAkIiIi0TEANC0cAiYiIqIiZ9q0afjoo49QqlQp2Nvbo0OHDkhISNCpk5WVhdDQUNja2qJkyZLo3LkzUlJSdOokJSWhdevWKFGiBOzt7TFmzBg8efJEp86hQ4dQu3ZtKBQKVKpUCVFRUQX6s3DhQpQvXx4WFhbw8fHByZMnDf7Mb4MBIBEREYlPZoDjLRw%2BfBihoaE4fvw4oqOjkZubi%2BbNmyMzM1OoM3LkSGzbtg0bN27E4cOHcfv2bXTq1Ek4//TpU7Ru3Ro5OTk4duwYVq5ciaioKISHhwt1EhMT0bp1a/j7%2ByMuLg4jRoxA//79sWfPHqHO%2BvXrERYWhsmTJ%2BPMmTOoVasWAgMDkZqa%2BnYPZUAyrVarNdrd6b2j0WigUqmgqDEAMjNzY3eHSBRppxYYuwtEotBoNHCwVSEjIwNKpbLQ7qlSqaDsuhSy4pbv3I429zE0Gwe%2Bc9/v3LkDe3t7HD58GI0aNUJGRgbKlCmDdevWoUuXLgCA%2BPh4eHh4IDY2Fr6%2Bvti1axfatGmD27dvw8HBAQCwZMkSjBs3Dnfu3IG5uTnGjRuHHTt24Pz588K9goKCkJ6ejt27dwMAfHx88NFHH2HBgmffW/Ly8uDi4oKhQ4di/Pjx7/ye6IMZQCIiIhKdTPbvPMB3O/S7f0ZGBgCgdOnSAIDTp08jNzcXAQEBQp2qVauiXLlyiI2NBQDExsaiRo0aQvAHAIGBgdBoNLhw4YJQ5/k28uvkt5GTk4PTp0/r1JHL5QgICBDqGAMXgRAREdF7Q6PR6LxWKBRQKBT/eU1eXh5GjBiB%2BvXro3r16gAAtVoNc3NzWFtb69R1cHCAWq0W6jwf/OWfzz/3X3U0Gg0eP36MtLQ0PH369KV14uPj3%2BSRRcEMIBEREYlOBn2yfzLI/pkE6OLiApVKJRzTpk177b1DQ0Nx/vx5/PLLL2I/5nuDGUAiIiISnaG2gbl586bOHMDXZf%2BGDBmC7du3IyYmBmXLlhXKHR0dkZOTg/T0dJ0sYEpKChwdHYU6L67WzV8l/HydF1cOp6SkQKlUwtLSEmZmZjAzM3tpnfw2jIEZQCIiInpvKJVKneNVAaBWq8WQIUOwadMmHDhwAG5ubjrnvb29Ubx4cezfv18oS0hIQFJSEvz8/AAAfn5%2BOHfunM5q3ejoaCiVSnh6egp1nm8jv05%2BG%2Bbm5vD29tapk5eXh/379wt1jIEZQCIiIhLfO2zlUuD6txAaGop169Zhy5YtKFWqlDBnT6VSwdLSEiqVCiEhIQgLC0Pp0qWhVCoxdOhQ%2BPn5wdfXFwDQvHlzeHp6onfv3pg5cybUajUmTZqE0NBQIfAcPHgwFixYgLFjx%2BLTTz/FgQMHsGHDBuzYsUPoS1hYGIKDg1GnTh3UrVsX8%2BbNQ2ZmJvr166fHG6IfBoBEREQkPj2HgLVvee3ixYsBAE2aNNEpX7FiBfr27QsAmDt3LuRyOTp37ozs7GwEBgZi0aJFQl0zMzNs374dn332Gfz8/GBlZYXg4GBMmTJFqOPm5oYdO3Zg5MiRmD9/PsqWLYuffvoJgYGBQp3u3bvjzp07CA8Ph1qthpeXF3bv3l1gYUhh4j6A9Fa4DyBJAfcBpKLKmPsA2vRYBrl5iXduJy/nEdJ%2BDinUvhdlzAASERGR6PRdBKLXAhIqgAEgERERiY4BoGnhKmAiIiIiiWEGkIiIiMRXyKuA6b8xACQiIiLRcQjYtDAAJCIiItExADQtnANIREREJDHMABIREZHomAE0LQwAiYiISHQMAE0Lh4CJiIiIJIYZQCIiIhIft4ExKQwAiYiISHQcAjYtHAImIiIikhhmAImIiEh0zACaFmYAiQxo9KfNcWTNGKQe%2BRY39k/DhjkDUNnVXqfO918E4cLWybgfOwdJB6Zhw9yBqFLeQadOk7pVcDAqDKlHvkVi9Df4elh7mJn9%2B89VYV4MSyM/wakNE/Hg1HxsmDPgpf0xL14MEaFtkbBzCtJPzEX8jkj0ae9r%2BAcnes7Tp08ROflLVK3sBptSlvB0r4hpU7%2BCVqsV6mi1WkyJCIebixNsSlmiVWAArly%2BrNNOl47tULlCOViXtICbixM%2BDe6N27dvF/bjkIHkB4D6HGQ4DACJDKhh7UpYsj4Gjft8izafLUCxYmbYvngISliYC3X%2BvHQTAyPWwKvT12j3%2BULIZDJsXxQKufzZN7caVT7A5u8/w95jF%2BHbYzp6j1%2BO1o1r4Oth7YU2zORyPM7OxaKfD%2BHAiYRX9mfNzE/hX7cKBkeuRc0OXyF4QhQuX08V7w0gAjB71gz8%2BMNizJ2/AHHnLuHrb2ZgzrczsWjB9//W%2BXYmFi34Dt8tXIKYoydgZWWFtq0DkZWVJdRp1Ngfa9ZtwF8XErBu/W%2B4du0qenbvYoxHIipyZNrnfyUjeg2NRgOVSgVFjQGQmZm//gKJs7MpiZsHpiMgZC6Onrn60jrVKzvj1IaJ8GwbgcRbdxE5pC2a%2BlZFg09mCXVaNaqONTM%2BRbmmE/DwUbbO9UsjP4F1KUt0C/tRp7xZPQ%2Bsmt4Pnm0ikKZ5ZPiHK8LSTi0wdhfea53at4G9vQOW/LhMKAvq1hmWFpZYsWoNtFotKpRzxrCRozAybDQAICMjA64fOGDpsih06x700na3b9uKbp07ICMzG8WLFy%2BUZylqNBoNHGxVyMjIgFKpLLR7qlQqOA9YB7l5iXduJy/nEW7/2LNQ%2B16UMQNIJCJlSQsAQFrGywOwEhbm6NPOF4m37uKWOg3As%2BHdrOxcnXqPs3NhaWGODz3KvfG9WzeugTMXkxDWNwBX93yNs5vDMW1kR1go%2BIOTxOXrVw8HD%2B7H5b//BgCc/esvxB49guYtWgIAricmQq1W4%2BOPA4RrVCoVPqrrgxPHY1/a5v379/HLz2vh61ePwd97ikPApoWLQIhEIpPJMGt0Fxz78youXk3WOTewa0NMHdEBJUsokJCoRuvPFiD3yVMAQPSxSxjS0x/dWnjj171n4GirxMSBz35wOpV589963T6wQz2visjKfoLuYT/C1sYK8yd0R2mVFQZFrDHcgxK9YPTY8dBoNKhVvSrMzMyezQn8aip69OwFAFCr1QAAewfdua/2Dg5ISVHrlH0xYRyWLFqAR48eoa6PL37fsr1wHoIMjotATAszgO%2BJ8uXLF/hNaPr06Tp1zp49i4YNG8LCwgIuLi6YOXOmzvmIiAh4eXnplP3vf/%2BDtbU1RowYAc4GMKx5E7qhWiUn9Bm/osC5X3adgm%2BPZ0PDl5PuYM2MT6Ewf/b72P7j8Zg4bzO%2BmxiEjBPzcHZLOPYcuQAAyMt7878juVwGrVaLfl9E4Y8LN7DnyEWMm/07Pmlbl1lAEtWvGzfgl5/XImr1OsSePIOflq/EvDnfYs2qlW/d1shRY3D81J/YvmsvzMzM0L9fH36vIjIAZgALSV5eHpKTk/HBBx%2B8cxtTpkzBgAH/rvYsVaqU8LVGo0Hz5s0REBCAJUuW4Ny5c/j0009hbW2NgQMHvrS9HTt2oGvXrhg/fjzCw8PfuV9U0NxxXdGqYXUEhMzD/6WmFziveZgFzcMsXE26g5NnryM5Zibaf1wLG3afBgB8t%2BYAvltzAE5lVEjTPIKrc2l8Naw9Em/dfeM%2BqO9qcDs1A5qH/06qj09UQy6X4wMHa1xNuqP/gxK9xMTxYzB6zHhhLl/1GjWQlHQDs2ZOwyd9guHo6AgASE1JgZOTk3BdakoKatbS/SXVzs4OdnZ2qFylCtyreqCymwtOHD8OXz%2B/wnsgMggZ9MwA8qNADIoZQJHFx8djwoQJKFeuHL799lu92ipVqhQcHR2Fw8rKSji3du1a5OTkYPny5ahWrRqCgoIwbNgwzJkz56VtrVu3Dp06dcLMmTMZ/BnY3HFd0e7jWmgx6DvcuH3vtfVlMhlkkMG8eMHfx5LvZCArOxfdWtTBzeT7%2BDP%2B5hv3IzbuGpzKqGBl%2Be9incqu9nj6NA//l1IwKCUylMePHkEu1/3xYmZmhry8PABAeTc3ODo64uDB/cJ5jUaDUydPwMf31YFd/vU5OdmvrEOmi3MATQsDQBGkpaVh8eLF8PX1RfXq1XHmzBlMnz4dU6dOFep88803KFmy5H8eSUlJOu1Onz4dtra2%2BPDDDzFr1iw8efJEOBcbG4tGjRrB3PzfH/aBgYFISEhAWlqaTjsLFy5Ev379sHz5cgwZMkSkd0Ga5k3ohqDWHyF4YhQeZmbBwbYUHGxLCUOu5T%2BwxehPm%2BNDDxe4ONrAt5Yb1s4KwePsXGGYFwBG9mmKapWc4VHBEeMHtMDofs0wauavOkPAVSs4omaVD2CjsoKypCVqVvkANav8m2Fev%2BsU7mdkYmnkJ6hawRH1a1fENyM6YuWW2AKLTIgMqVXrtpgxfSp27dyBG9evY8vmTfhu3hy0a98RwLNAIHTYCMz45mts37YV58%2BdQ0i/PnBydka79h0AACdPnMDihQvwV1wcbty4gUMHDyD4kx6oULHifwaJRPRmOARsIHl5edi1axdWrlyJrVu3okqVKujduzc2bdqkM8SRb/DgwejWrdt/tuns7Cx8PWzYMNSuXRulS5fGsWPHMGHCBCQnJwsZPrVaDTc3N53rHf6ZYK1Wq2FjYwMAuHTpEoYMGYJly5ahV69er32u7OxsZGf/%2B9u2RqN57TVSNqhbIwBA9E8jdMoHhK/Gmm0nkJ3zBPU/rIghPZvARlkCqfce4MiZK/DvOxt30h4K9ZvX98TY/oFQFC%2BGc3//H7qOXIq9Ry/qtLn5%2B8/g6mwrvD6xfgIAwPLDZ0F95uMctP5sAeaM64qja8bifkYmfos%2Bg4iFnERP4poz/3tETv4Sw4d%2BjjupqXBydkbIgEGYOOnf0YZRo8fiUWYmhnw2EOnp6ahXvwG2bt8NC4tnK%2BdLlCiBLZt/x9dTJiMzMxOOTk5o3rwFxk2cBIVCYaxHI33I/jn0uZ4MhvsAGsj169fh5uYGGxsbLFu2DB07dhT1fsuXL8egQYPw8OFDKBQKNG/eHG5ubvjhhx%2BEOhcvXkS1atVw8eJFeHh4ICIiAqtXr4a1tTUePXqEAwcOvDQ4fV5ERAQiIyMLlHMfQCrKuA8gFVXG3AfQ9fONkCv02Acw%2BxFuLOrKfQANhEPABlK2bFn8/PPP8PHxQbdu3dCoUSP8%2BOOPSE9/%2BVyrdxkCfp6Pjw%2BePHmC69evAwAcHR2RkpKiUyf/df6Ea%2BDZPMJ9%2B/bBysoK/v7%2BSE7W3Z7kRRMmTEBGRoZw3Lz55nPQiIiIyDQxADSQYsWKISgoCLt27UJSUhLatGmDefPmwdHREV27dsXWrVuRm/vvvKvBgwcjLi7uP4/nh4BfFBcXB7lcDnv7Z58z6%2Bfnh5iYGJ17REdHw93dXRj%2BzWdjY4N9%2B/ZBqVSiSZMm//nZmgqFAkqlUucgIiJ6W1wEYloYAIrAyckJY8eOxYULF3DkyBE4ODjg008/xfjx44U6pUuXRqVKlf7zKFbs2RTN2NhYzJs3D3/99ReuXbuGtWvXYuTIkfjkk0%2BE4K5nz54wNzdHSEgILly4gPXr12P%2B/PkICwt7aR%2Btra0RHR0NGxub1waBRERE%2BpLJ9D/IcLgIRGR16tRBnTp1MGfOHNy6deud2lAoFPjll18QERGB7OxsuLm5YeTIkTrBnUqlwt69exEaGgpvb2/Y2dkhPDz8lXsAPn9NixYt0LhxYxw6dEivfQqJiIjo/cBFIPRW8ifzchEIFWVcBEJFlTEXgVQY%2BivkCqvXX/AKedmZuPZ9Fy4CMRBmAImIiEh8%2Bg7jcgjYoBgAEhERkej0XcjBRSCGxUUgRERERBLDDCARERGJTt%2BVvEwAGhYDQCIiIhKdXC6DXP7uUZxWj2upIA4BExEREUkMM4BEREQkOg4BmxYGgERERCQ6rgI2LRwCJiIiIpIYZgCJiIhIdBwCNi0MAImIiEh0HAI2LRwCJiIiIpIYZgCJiIhIdMwAmhYGgERERCQ6zgE0LQwAiYiISHQy6JkBBCNAQ%2BIcQCIiIiKJYQaQiIiIRMchYNPCAJCIiIhEx0UgpoVDwEREREQSwwwgERERiY5DwKaFASARERGJjkPApoVDwERERETOC61qAAAgAElEQVQSwwwgERERiY5DwKaFASARERGJjkPApoVDwEREREQSwwwgERERiU/PIWB%2BEpxhMQAkIiIi0XEI2LQwACQiIiLRcRGIaeEcQCIiIiKJYQaQiIiIRMchYNPCAJCIiIhExyFg08IhYCIiIiKJYQaQiIiIRMchYNPCAJCIiIhExwDQtHAImIiIiEhimAEkIiIi0XERiGlhAEhERESi4xCwaeEQMBEREZHEMANIREREouMQsGlhBpCIiIhElz8ErM/xtmJiYtC2bVs4OztDJpNh8%2BbNOuf79u1b4B4tWrTQqXP//n306tULSqUS1tbWCAkJwcOHD3XqnD17Fg0bNoSFhQVcXFwwc%2BbMAn3ZuHEjqlatCgsLC9SoUQM7d%2B586%2BcxJAaAREREJDoZ/s0CvtPxDvfMzMxErVq1sHDhwlfWadGiBZKTk4Xj559/1jnfq1cvXLhwAdHR0di%2BfTtiYmIwcOBA4bxGo0Hz5s3h6uqK06dPY9asWYiIiMDSpUuFOseOHUOPHj0QEhKCP//8Ex06dECHDh1w/vz5d3gqw%2BAQMBERERVJLVu2RMuWLf%2BzjkKhgKOj40vPXbp0Cbt378apU6dQp04dAMD333%2BPVq1a4dtvv4WzszPWrl2LnJwcLF%2B%2BHObm5qhWrRri4uIwZ84cIVCcP38%2BWrRogTFjxgAAvvrqK0RHR2PBggVYsmSJAZ/4zTEDSERERKKTy2R6H2I4dOgQ7O3t4e7ujs8%2B%2Bwz37t0TzsXGxsLa2loI/gAgICAAcrkcJ06cEOo0atQI5ubmQp3AwEAkJCQgLS1NqBMQEKBz38DAQMTGxoryTG%2BCGUAiIiISnaEWgWg0Gp1yhUIBhULxTm22aNECnTp1gpubG65evYqJEyeiZcuWiI2NhZmZGdRqNezt7XWuKVasGEqXLg21Wg0AUKvVcHNz06nj4OAgnLOxsYFarRbKnq%2BT34YxMAAkIiKi94aLi4vO68mTJyMiIuKd2goKChK%2BrlGjBmrWrImKFSvi0KFDaNq0qT7dNHkMAImIiEh0htoI%2BubNm1AqlUL5u2b/XqZChQqws7PDlStX0LRpUzg6OiI1NVWnzpMnT3D//n1h3qCjoyNSUlJ06uS/fl2dV809LAycA0hERESik8v0PwBAqVTqHIYMAG/duoV79%2B7ByckJAODn54f09HScPn1aqHPgwAHk5eXBx8dHqBMTE4Pc3FyhTnR0NNzd3WFjYyPU2b9/v869oqOj4efnZ7C%2Bvy0GgERERFQkPXz4EHFxcYiLiwMAJCYmIi4uDklJSXj48CHGjBmD48eP4/r169i/fz/at2%2BPSpUqITAwEADg4eGBFi1aYMCAATh58iSOHj2KIUOGICgoCM7OzgCAnj17wtzcHCEhIbhw4QLWr1%2BP%2BfPnIywsTOjH8OHDsXv3bsyePRvx8fGIiIjAH3/8gSFDhhT%2Bm/IPBoBEREQkPpl%2Bm0G/y0aAf/zxBz788EN8%2BOGHAICwsDB8%2BOGHCA8Ph5mZGc6ePYt27dqhSpUqCAkJgbe3N/73v//pZBXXrl2LqlWromnTpmjVqhUaNGigs8efSqXC3r17kZiYCG9vb4waNQrh4eE6ewXWq1cP69atw9KlS1GrVi38%2Buuv2Lx5M6pXr/7u76eeZFqtVmu0u9N7R6PRQKVSQVFjAGRm5q%2B/gOg9lHZqgbG7QCQKjUYDB1sVMjIydObRiX1PlUqFZnP3o7hlyXduJ/fxQ0SPbFqofS/KmAEkIiIikhiuAiYiIiLRyf75o8/1ZDgMAImIiEh0z6/kfdfryXCKfAC4d%2B/eN67bvHlzEXtCREQkXYbaB5AMo8gHgC1atHijejKZDE%2BfPhW5N0RERETGV%2BQDwMePHxu7C0RERJJnqM8CJsMo8gHgq3YIz8vLg1zORdBERESFQS6TQa5HFKfPtVSQpCKgvLw8zJo1CxUrVoSFhQWuXbsGAIiMjMSqVauM3DsiIiKiwiGpAHDGjBlYuHAhJk6ciGLF/k1%2BVqlSBUuWLDFiz4iIiIq2/CFgfQ4yHEkFgCtWrMDSpUsREhICMzMzodzLywvx8fFG7BkREVHRps/HwOm7gpgKklQAePPmTVSpUuWl57Kzswu5N0RERETGIakA0N3dHbGxsQXKN23ahJo1axqhR0RERNLAIWDTUuRXAT9v0qRJGDRoEFJTU5GXl4edO3ciISEBP/74IzZt2mTs7hERERVZXAVsWiQVAHbp0gXW1taIjIxEsWLFMGLECHh5eWHjxo1o2bKlsbtHREREVCgkFQACQEBAAAICAgAAWq2Wk0qJiIgKgeyfQ5/ryXAkFwACwPnz53Hp0iUAgKenJ6pVq2bkHhERERVt/Cxg0yKpAFCtVqN3797Yv38/LC0tAQBZWVnw9/fH6tWr4eTkZOQeEhERFU1y2bNDn%2BvJcCS1Crh///5IS0vDn3/%2BiczMTGRmZuLMmTPIyMjAgAEDjN09IiIiokIhqQzg/v37ceTIEdSqVUsoq1WrFhYtWoTGjRsbsWdERERFG4eATYukAkBnZ%2BeXlstkMjg6OhZyb4iIiKSFMZzpkNQQ8PTp0zF06FCcP39eKDt//jxGjBiBGTNmGLFnRERERIWnyGcAnZycdNLGaWlpqFWrlrAI5PHjxzA3N8fw4cPRtWtXY3WTiIioSOMQsGkp8gFgRESEsbtAREQkeVwFbFqKfAA4aNAgY3eBiIiIyKQU%2BQDwVfLy8vDkyROdMnNzcyP1hoiIqGjjELBpkdQikMePH2P06NEoV64czM3NYWlpqXMQERGROGQGOMhwJBUATpgwAVu3bsW0adNgbm6OhQsXYsKECXBwcMDy5cuN3T0iIiKiQiGpIeBNmzZh%2BfLlaNq0KQYPHoyAgABUqlQJFStWxG%2B//Ybg4GBjd5GIiKhIkstkkOsxjKvPtVSQpDKAd%2B/eReXKlQEASqUSaWlpAIAmTZrg4MGDxuwaERFRkSaT6X%2BQ4UgqAHRzc0NSUhIAwN3dHb///jsAYM%2BePVAqlcbsGhERUZGWvwhEn4MMR1IBYO/evXHq1CkAwJgxYzBnzhwolUqEhoZi%2BPDhRu4dERERUeGQ1BzAcePGCV%2B3bNkS58%2Bfx6lTp1CpUiXUrVvXiD0jIiIq2vQdxmUC0LAkFQC%2BqHLlysKcQCIiIhIPF4GYliIfAC5duvSN6w4cOFDEnhARERGZhiIfAE6ePPmN6slkMgaAREREIuEQsGkp8gFgcnKysbtAREQkefwoONNS5ANAEseeteEoWYpb51DRlJn95PWViN5Dj/j/Nv2DASARERGJTg799p6T1L51hYABIBEREYmOQ8CmhQE1ERERkcQwA0hERESik8kAOVcBmwzJZQBPnjyJ/v37w9/fH7dv3wYA/PLLLzh%2B/LiRe0ZERFR0yWX6H2Q4kgoAt27disaNGyM7OxuxsbHIysoCAKSmpuLrr782cu%2BIiIiKrvw5gPocZDiSCgAjIyOxYMECrF69GsWLFxfKGzRogNOnTxuxZ0RERESFR1JzAOPj49G0adMC5dbW1khLSzNCj4iIiKRB32FcDgEblqQygPb29khMTCxQHhsbCzc3NyP0iIiISBryPwpOn4MMR1IBYL9%2B/TBixAj89ddfkMlkuHfvHn777TeMHj2anwNMREREkiGpIeBJkyYhNzcXfn5%2ByMrKgq%2BvL4oVK4Zhw4Zh5MiRxu4eERFRkSWXySDXI42nz7VUkKQCQLlcjq%2B%2B%2Bgrjx49HQkICHj58iBo1asDGxsbYXSMiIirS%2BFFwpkVSAWA%2BKysr1K5d29jdICIiIjIKSQWArVq1%2Bs/zO3fuLKSeEBERSYu%2BCzk4AmxYkgoAXV1ddV7n5uYiLi4OV65cQY8ePYzUKyIioqJPDj3nAIIRoCFJKgBcvHjxS8snTpwIrVZbyL0hIiIiMg7OqcSz7WF%2B/PFHY3eDiIioyOI%2BgKZFUhnAVzlz5ozOR8MRERGRYfGTQEyLpALAnj176rzWarVITk7G0aNHMXbsWCP1ioiIqOiTyfTby48ZQMOSVAD44jw/uVwOLy8vhIWFoV27dkbqFREREVHhkkwA%2BPTpU4wcORLu7u5QqVTG7g4REZGkcBsY0yKZRSBmZmZo2LAh7t27Z%2ByuEBERSU7%2BHEB9DjIcyQSAAODp6YmbN28auxtERERERiWpAHDmzJkYPXo09u3bh7S0NOTk5OgcREREJA6ZAf6Q4UhmDiAABAYG6vz3RU%2BfPi3M7hAREUkGt4ExLZIKAHft2mXsLhAREREZnSQCwClTpmD06NGvzPwRERGRuJgBNC2SmAMYGRmJhw8fGrsbREREkiWTyfQ%2ByHAkEQC%2BuAE0ERERkZRJYggYAH9zICIiMiIOAZsWyQSAVapUeW0QeP/%2B/ULqDRERkbTwk0BMi2QCwMjISH4EHBERkZHIZTLI9Yji9LmWCpLEHEAACAoKQnBw8H8eREREVHTExMSgbdu2cHZ2hkwmw%2BbNm3XOa7VahIeHw8nJCZaWlggICMDly5d16ty/fx%2B9evWCUqmEtbU1QkJCCiwsPXv2LBo2bAgLCwu4uLhg5syZBfqyceNGVK1aFRYWFqhRowZ27txp%2BAd%2BC5IIADn/j4iIyLiM8VnAmZmZqFWrFhYuXPjS8zNnzsR3332HJUuW4MSJE7CyskJgYCCysrKEOr169cKFCxcQHR2N7du3IyYmBgMHDhTOazQaNG/eHK6urjh9%2BjRmzZqFiIgILF26VKhz7Ngx9OjRAyEhIfjzzz/RoUMHdOjQAefPn3/7hzIQmVYCS2TlcjnUajXs7e2N3ZX3nkajgUqlwqGzN1GylNLY3SESRfkyJYzdBSJRPNBo4OZsi4yMDCiVhfM9PP/nxow9f8HSqtQ7t/M48wHGBdZ6577LZDJs2rQJHTp0APAs%2B%2Bfs7IxRo0Zh9OjRAICMjAw4ODggKioKQUFBuHTpEjw9PXHq1CnUqVMHALB79260atUKt27dgrOzMxYvXowvvvgCarUa5ubmAIDx48dj8%2BbNiI%2BPBwB0794dmZmZ2L59u9AfX19feHl5YcmSJe/8nuhDEhnAvLw8Bn9EREQkSExMhFqtRkBAgFCmUqng4%2BOD2NhYAEBsbCysra2F4A8AAgICIJfLceLECaFOo0aNhOAPePaRswkJCUhLSxPqPH%2Bf/Dr59zEGySwCISIiIuORQwY59FgE8s%2B1Go1Gp1yhUEChULx1e2q1GgDg4OCgU%2B7g4CCce9noYbFixVC6dGmdOm5ubgXayD9nY2MDtVr9n/cxBklkAImIiMi48reB0ecAABcXF6hUKuGYNm2acR/sPcUMIBEREb03bt68qTMH8F2yfwDg6OgIAEhJSYGTk5NQnpKSAi8vL6FOamqqznVPnjzB/fv3hesdHR2RkpKiUyf/9evq5J83BmYAiYiISHSGWgWsVCp1jncNAN3c3ODo6Ij9%2B/cLZRqNBidOnICfnx8AwM/PD%2Bnp6Th9%2BrRQ58CBA8jLy4OPj49QJyYmBrm5uUKd6OhouLu7w8bGRqjz/H3y6%2BTfxxgYABIREZHo8jeC1ud4Ww8fPkRcXBzi4uIAPFv4ERcXh6SkJMhkMowYMQJff/01tm7dinPnzqFPnz5wdnYWVgp7eHigRYsWGDBgAE6ePImjR49iyJAhCAoKgrOzMwCgZ8%2BeMDc3R0hICC5cuID169dj/vz5CAsLE/oxfPhw7N69G7Nnz0Z8fDwiIiLwxx9/YMiQIQZ4Z98Nh4CJiIioSPrjjz/g7%2B8vvM4PyoKDgxEVFYWxY8ciMzMTAwcORHp6Oho0aIDdu3fDwsJCuGbt2rUYMmQImjZtCrlcjs6dO%2BO7774TzqtUKuzduxehoaHw9vaGnZ0dwsPDdfYKrFevHtatW4dJkyZh4sSJqFy5MjZv3ozq1asXwrvwcpLYB5AMh/sAkhRwH0Aqqoy5D%2BD8/ef03gdweNMahdr3oowZQCIiIhKdHHp%2BFrAeW8hQQQwAiYiISHTPb%2BXyrteT4XARCBEREZHEMANIREREopNDv6wTM1aGxQCQiIiIRCeTySDTYxxXn2upIAbURERERBLDDCARERGJTvbPoc/1ZDgMAImIiEh07/ppHs9fT4bDIWAiIiIiiWEGkIiIiAoFc3imgwEgERERiY4bQZsWDgETERERSQwzgERERCQ67gNoWhgAEhERkej4SSCmhQEgERERiY4ZQNPCgJqIiIhIYpgBJCIiItHxk0BMCwNAIiIiEh2HgE0Lh4CJiIiIJIYZQCIiIhIdVwGbFgaAREREJDoOAZsWBtREREREEsMMIBEREYmOq4BNCwNAIiIiEp1M9uzQ53oyHA4BExEREUkMM4BEREQkOjlkkOsxkKvPtVQQA0AiIiISHYeATQsDQCIiIhKd7J8/%2BlxPhsM5gEREREQSwwwgERERiY5DwKaFASARERGJTqbnIhAOARsWh4CJiIiIJIYZQCIiIhIdh4BNCwNAIiIiEh0DQNPCIWAiIiIiiWEGkIiIiETHfQBNCwNAIiIiEp1c9uzQ53oyHA4BExEREUkMM4BEREQkOg4BmxZmAIlE9MO8aajjptI5OjetAwC4fetGgXP5x74dmwAA235d%2B8o69%2B/eEe6Tk52NhbOmoE396vBzL4O2DWpgy4bVRnlmkpZ5385AQCNfuDraoGp5Z/QO6ozLfyfo1MnKysLYkUNRuZwDXB2s0bdnN6SmpBRo6%2Bc1K9HI50N8YFsSVcs7Y%2BzIocK5pBvXYVeyeIHjj5PHRX9GMoz8VcD6HGQ4zAASiaxCFQ8sWrNFeF3M7Nk/Owensth98m%2Bdupt%2BjsLqpd%2BhXpNmAIBmbTrBr3GATp3I0Z8hOzsbpe3KCGXjh/TF/bup%2BHLG93ApXwF3U1OQl5cn1iMRCY4diUHIwM/wYe06ePL0Cb6O%2BBJd27fC0T/OwsrKCgAwadwoRO/ZhWWrfoFSpcT4UcPRt1dX7NwXI7Sz6Pu5WPTdPERMnQ7vOnXx6FEmkm7cKHC/37ftgbunp/C6dGlb8R%2BSDEIG/bJ4jP8MiwEgkciKmRWDXRmHAuVmZmYFyg/u2YaA1h1QwqokAMDCwhIWFpbC%2BbR7d3EqNgZfTl8glB07vA9nThzFlpg4qKxLAwCcy7qK8ShEBWzYvEPn9YIly1DVzRl//XkG9Ro0hCYjA2tXrcAPy1ejURN/AMD3i3%2BCn3cN/HHyOOrU9UV6WhqmTZmMtRs2o5H/x0Jb1arXLHA/G9vScHBwFPehiCSAQ8BEIku6fhUtfNzRvlFNTBrRH%2Br/u/nSepfO/Ym/L55D%2B259XtnWjt9/hoVFCTRt1V4oi9m3E541vbDqh/lo6VsVnfxrY97UL5CV9djgz0L0OhpNBgDAxsYGABD35xnk5uaisX9ToU5l96oo61IOp/4Zvj10YB/y8vKQnPx/8KtdAzWqlEdI7x74v1sF/6180q0TqpZ3RutmjbFrx7ZCeCIylPxVwPocZDjMABKJqLpXHUTMWgTXCpVxN1WNH7%2Bbgf7dWmL9nlhYlSylU3fLhtVwq%2BSOWt4%2Br2xvy4bVaNG%2Bi05W8P%2BSriPu1HGYKywwa8lapKfdw4wvRyEjPQ2TZy0S7dmIXpSXl4cvxo2Cj189eFSrDgBITVXD3NwcKmtrnbpl7O2FeYA3riciLy8Pc2fNwDez5kCpVOKbKZPRuW1LxJw4A3Nzc1hZlcSUaTPh41sPMrkc27dsQp%2Bgzlj1y29o2bptoT8rvT0uAjEtzAC%2BByIiIiCTyXSOqlWr6tTJyspCaGgobG1tUbJkSXTu3Bkpz02yvn79OmQyGeLi4oSyBw8ewN/fH56enrh161ahPY%2BU1G/SDAGtO6KyR3X4NQ7A/BUb8eBBBqL/WeSRLyvrMXZv%2BRXtu/V%2BZVtnz5xE4pWEAnXy8vIgk8nw9dwfUd3LGw38m2PkpKnY/ts6ZgGpUI0dORTxFy/gx6i1b3VdXl4ecnNzMe3bufg4oDnq1PXF0hVrcO3qZRyJOQQAsLWzw%2BdDR8L7Ix/U9v4I4VO%2BQdegnlg4b7YIT0JU9DEANIKsrCzcuXPn9RWfU61aNSQnJwvHkSNHdM6PHDkS27Ztw8aNG3H48GHcvn0bnTp1emV7d%2B7cgb%2B/PzIzM/G///0PZcuWfadnobdTSmkNV7eKuHXjmk75/p1bkJX1CK079XjltZvXr0QVzxrwqPGhTrmdvSPKODqhpFIllLlVcodWq0Vq8m3DPgDRK4wLG4a9u3di885oOH/w7/cTe3tH5OTkICM9Xaf%2BndRU2Ds8mwPr4PhsTp97VQ/hvF2ZMrC1tcOtm0mvvKd3nbq4du2qIR%2BDRMRVwKaFAaARpKSk4IMPPkCHDh2wadMm5ObmvvaaYsWKwdHRUTjs7OyEcxkZGVi2bBnmzJmDjz/%2BGN7e3lixYgWOHTuG48cLbpFw8%2BZNNGzYECqVCgcOHICtLVfRFZZHmQ9x60Yi7MroTmLfsmE1GjVtCRtbu1det2/H5pfOD6zl7YM7KWo8ynwolN24dgVyuRz2Ts6GfQCiF2i1WowLG4Yd27Zg0469cC3vpnPe68PaKF68OGIOHRDKLv%2BdgFs3k/BRXV8AQF3fegCAK3//uyo%2B7f593Lt3Fy7lXr2g6dy5v4TgkUyfzAAHGQ4DQCNwdXVFbGwsXF1dMWjQIDg5OWHYsGE4ffr0K6%2B5fPkynJ2dUaFCBfTq1QtJSf/%2BVnz69Gnk5uYiIODf7UKqVq2KcuXKITY2VqedhIQE1K9fH56enti5cydKlixp%2BAckwbypX%2BD08SO4fesG/jp9AqMH9YLczAyB7boIdW5ev4o/Tx5Fh6DgV7azd/vvePrkCVp17FbgXIv2XWFtUxqRYz7HtcvxOHPiKL6b9iXadf1EZ64gkRjGjhyKjevX4Yflq1GyVCmkpKiRkqLG48fPph8oVSr06tMPX04Yg/8dPoS4P09j2Gf98ZGPL%2Br8EwBWqlwFLdu0w8SxYTh5/BguXTiP0EGfonKVqmjQqAkA4Je1q/Dbhl9wOSEelxPiMXfWdKxbFYUBg0ON9ehE7zUuAjESb29veHt7Y/bs2di1axdWrVqF%2BvXro3LlyggODkbv3r3h8M/wiI%2BPD6KiouDu7o7k5GRERkaiYcOGOH/%2BPEqVKgW1%2Btkka%2BsXJlk7ODhArVbrlPXp0wf169fHxo0bYWZm9tp%2BZmdnIzs7W3it0WgM8PTSkaK%2BjS%2BGhyAj/T5sStuhVh1fRP2%2BTyfTt3XjGtg7fQDfhh%2B/sp2tG1bDv0VblFJaFzhXwqokFq7ejJmTx6B3uyawtimNgFYd8dnoSaI8E9HzVvz0AwCgfcumOuXfL/kJPT559kvN1zNmQy6Xo98n3ZCTnQ3/ps0xc973OvUXLV2BSeNHoUeX9pDL5ahXvxE2bN6O4sWLC3Vmz/gGt27egFmxYqhcxR0/rVyHdh07i/yEZChyyCDXYxxXzhygQcm0Wq3W2J2gZ5KTk9GnTx/s27cPw4cPx7x5815aLz09Ha6urpgzZw5CQkKwbt069OvXTydQA4C6devC398fM2bMwPXr1%2BHm5oYuXbpg8%2BbNWLduHbp27fraPkVERCAyMrJA%2BaGzN1GylPLdHpTIxJUvU8LYXSASxQONBm7OtsjIyIBSWTjfwzUaDVQqFfaduQErPX5uZD7QIKC2a6H2vSjjELCRabVaxMTEYMCAAfDw8MCVK1cQHh6OsLCwV15jbW2NKlWq4MqVKwAAR8dnk6zTX5hknZKSAscX5sd88cUXCA8PR8%2BePbFhw4bX9m/ChAnIyMgQjps3X76HHREREb0/OARsJH///TdWr16NNWvW4O7du0JmrnHjxpC9JkX%2B8OFDXL16Fb17P9sOxNvbG8WLF8f%2B/fvRufOz4ZCEhAQkJSXBz8%2BvwPVffvkl5HI5evXqBa1Wi%2B7du7/yXgqFAgqFQo8nJSIigv4rOTgCbFAMAI0gKSkJHh4eaNKkCSIjI9G5c2fhMzNfZvTo0Wjbti1cXV1x%2B/ZtTJ48GWZmZujR49mWISqVCiEhIQgLC0Pp0qWhVCoxdOhQ%2BPn5wdfX96VtfvHFFzAzM0OvXr2Ql5cntEVERCQGbgRtWhgAGoGdnR0SExNRrly5N6p/69Yt9OjRA/fu3UOZMmXQoEEDHD9%2BHGXKlBHqzJ07F3K5HJ07d0Z2djYCAwOxaNF/fwrE%2BPHjIZfL0bt3b2i1WvTs2VOv5yIiInolfffyY/xnUFwEQm8lfzIvF4FQUcZFIFRUGXMRyP64JL1%2Bbjx8oEFTr3JcBGIgzAASERGR6DgF0LQwACQiIiLxMQI0KdwGhoiIiEhimAEkIiIi0XEVsGlhAEhERESik%2Bm5ClivFcRUAIeAiYiIiCSGGUAiIiISHdeAmBYGgERERCQ%2BRoAmhUPARERERBLDDCARERGJjquATQsDQCIiIhIdVwGbFgaAREREJDpOATQtnANIREREJDHMABIREZH4mAI0KcwAEhERkehkBvjzNiIiIiCTyXSOqlWrCuezsrIQGhoKW1tblCxZEp07d0ZKSopOG0lJSWjdujVKlCgBe3t7jBkzBk%2BePNGpc%2BjQIdSuXRsKhQKVKlVCVFTUO79HhYkBIBERERVJ1apVQ3JysnAcOXJEODdy5Ehs27YNGzduxOHDh3H79m106tRJOP/06VO0bt0aOTk5OHbsGFauXImoqCiEh4cLdRITE9G6dWv4%2B/sjLi4OI0aMQP/%2B/bFnz55Cfc53wSFgIiIiEp0xVgEXK1YMjo6OBcozMjKwbNkyrFu3Dh9//DEAYMWKFfDw8MDx48fh6%2BuLvXv34uLFi9i3bx8cHBzg5eWFr776CuPGjUNERATMzc2xZMkSuLm5Yfbs2QAADw8PHDlyBHPnzkVgYOC7P2whYAaQiIiIRCczwPG2Ll%2B%2BDGdnZ1SoUAG9evVCUlISAOD06dPIzc1FQECAULdq1aooV64cYmNjAQCxsbGoUaMGHOHek88AABdsSURBVBwchDqBgYHQaDS4cOGCUOf5NvLr5LdhypgBJCIioveGRqPRea1QKKBQKArU8/HxQVRUFNzd3ZGcnIzIyEg0bNgQ58%2Bfh1qthrm5OaytrXWucXBwgFqtBgCo1Wqd4C//fP65/6qj0Wjw%2BPFjWFpa6vewImIASEREROIz0CpgFxcXneLJkycjIiKiQPWWLVsKX9esWRM%2BPj5wdXXFhg0bTDowKywMAImIiEh0hvoouJs3b0KpVArlL8v%2BvYy1tTWqVKmCK1euoFmzZsjJyUF6erpOFjAlJUWYM%2Bjo6IiTJ0/qtJG/Svj5Oi%2BuHE5JSYFSqTT5IJNzAImIiOi9oVQqdY43DQAfPnyIq1evwsnJCd7e3ihevDj2798vnE9ISEBSUhL8/PwAAH5%2Bfjh37hxSU1OFOtHR0VAqlfD09BTqPN9Gfp38NkwZA0AiIiISXf4qYH2OtzF69GgcPnwY169fx7Fjx9CxY0eYmZmhR48eUKlUCAkJQVhYGA4ePIjTp0%2BjX79%2B8PPzg6%2BvLwCgefPm8PT0RO/evfHXX39hz549mDRpEkJDQ4Wgc/Dgwbh27RrGjh2L%2BPh4LPr/9u49OKr6/v/4a3PZzcLGkJAECEQCBjBxyrU1JgWhKhL4gqBQCtQYpFAEKcWpaO0YRbB2sCMWppLB0gLTUSkjCBiKXALJQEawSkIkUAxhYkHuIZjNPdk9vz%2BY7I%2BUi0Wy2ZPs8zHDHznn7O578ch55fM%2Bn/NZuVIbNmzQc88919J/fS2OFjAAAPC61l4I5PTp05o6darKysoUFRWloUOH6sCBA4qKipIkvf322woICNDEiRNVV1enUaNGaeXKlZ7XBwYGKisrS3PmzFFycrI6duyo9PR0LV682HNMr169tG3bNj333HNavny5evToodWrV5v%2BETCSZDEMw/B1EWg7KioqFBYWppzCU3KE3vXdLwDaoLioDr4uAfAKZ0WFesV01rffftvsPjpvarpufHb8zB1dNyqdFbq/X0yr1t6e0QIGAADwM7SAAQCA17XULGC0DAIgAADwOl8sBYebowUMAADgZxgBBAAAXtfas4BxawRAAADgfSRAU6EFDAAA4GcYAQQAAF7HLGBzIQACAADvu8NZwOS/lkULGAAAwM8wAggAALyOOSDmQgAEAADeRwI0FQIgAADwOiaBmAv3AAIAAPgZRgABAIDXsRawuRAAAQCA13ELoLnQAgYAAPAzjAACAADvYwjQVAiAAADA65gFbC60gAEAAPwMI4AAAMDrLLrDWcAtVgkkAiAAAGgF3AJoLrSAAQAA/AwjgAAAwOt4ELS5EAABAEAroAlsJgRAAADgdYwAmgv3AAIAAPgZRgABAIDX0QA2FwIgAADwOlrA5kILGAAAwM8wAggAALyOtYDNhQAIAAC8j5sATYUWMAAAgJ9hBBAAAHgdA4DmQgAEAABexyxgc6EFDAAA4GcYAQQAAF7HLGBzIQACAADv4yZAUyEAAgAAryP/mQv3AAIAAPgZRgABAIDXMQvYXAiAAACgFdzZJBCawC2LFjAAAICfYQQQAAB4HS1gc2EEEAAAwM8QAAEAAPwMLWAAAOB1tIDNhQAIAAC8jqXgzIUWMAAAgJ9hBBAAAHgdLWBzIQACAACvYy1gcyEAAgAA7yMBmgr3AAIAAPgZRgABAIDXMQvYXAiAAADA65gEYi60gAEAAPwMI4AAAMDrmANiLgRAAADgfSRAU6EFDAAA4GcYAQQAAF7HLGBzIQDithiGIUmqqnT6uBLAe5y2Rl%2BXAHiF01kh6f//W97an30nM3mbakfLIADitjidV4Pf/6Uk%2BrgSAMD35XQ6FRYW1iqfZbVa1bVrV/XpFXvH79W1a1dZrdYWqAoWwxe/BqDNcrvdOnPmjEJDQ2XhoUxeV1FRodjYWJ06dUp33XWXr8sBWhzneOsyDENOp1MxMTEKCGi9aQC1tbWqr6%2B/4/exWq0KCQlpgYrACCBuS0BAgHr06OHrMvzOXXfdxcUR7RrneOtprZG/a4WEhBDcTIZZwAAAAH6GAAgAAOBnCICAidlsNr366quy2Wy%2BLgXwCs5xwDeYBAIAAOBnGAEEAADwMwRAAAAAP0MABAAA8DMEQAAAAD9DAATaoePHj%2Buvf/2rJN%2Bs%2BQm0tJMnT%2BrEiRO%2BLgNoNwiAQDvT2NioqVOnqrS0VJJYsg9tXllZmR566CEdOXLE16UA7QYBEGhngoKurvDYvXt3SYwAou2z2Wyqr69XbGws5zPQQgiAQDtjGIaCg4MVFRXl61KAO%2BZ2u3Xp0iW5XC6Fh4czog20EAIg0A6UlpZqy5YtkqTq6mp98803nn1cMNEWnTt3TjU1NQoICJDL5VJ9fT3nMtCCCIBAG1dfX6/ly5dr9uzZ2rRpkzp27KjGxkYFBwdLujqCArQlNTU1SkpKUlpamhoaGmSz2RQSEiKLxUILGGghQb4uAMCdsVqtevLJJ1VTU6Pf/e53unDhggYMGKDLly/r888/V3V1tRwOhwIDA1VVVaWLFy9qwIABiouL83XpwA3Z7Xa9%2B%2B67mjp1qn75y19qxowZstvtqqioUHV1tRoaGlRbWyur1Sqr1aqTJ0%2BqZ8%2BeCgsL83XpQJvBWsBAO3Ho0CGtWrVKO3fu1Ndff63u3bvL6XSqrq5OQUFBnvaZ3W5XXl6e4uPjfVwxcGvZ2dl67LHH1Lt3b5WUlMjtdqtLly5qbGxURUWFOnTooKCgIAUEBCg/P1%2BRkZG%2BLhloMwiAQBt08uRJbdu2TXV1dYqLi9OkSZMkSfn5%2BVq1apWys7OVlpamF198UZWVlaqqqpIkORwONTY2Kjo62pflA9c5c%2BaMSktLVV5erpEjR8pqtUqScnJyNG3aNAUEBOgPf/iDwsLCFBgYqPr6elmtVgUHBys%2BPl69e/f28TcA2hYCINDGHDlyRA8%2B%2BKCGDBmikpISWSwWxcbG6qOPPlJ4eLgKCgqUmZmp3NxcLVq0SFOmTJFhGM3uCwTMpLCwUGPHjpXdbtfFixcVHh6uRYsWadSoUYqOjlZOTo7GjRunp59%2BWsuWLfM86gjA90cABNqQ2tpajR49Wn379tWqVatUXl6uL7/8UnPnzpUkZWVlKS4uTocOHVJmZqYOHjyohQsXKi0tzceVAzd26dIlDR8%2BXOPHj9fs2bNlt9u1cOFCHTx4UJMmTdLcuXMVExOj3bt3a8KECfrZz36mP/3pTwoNDfV16UCbxixgoI2pqqrS0KFDJUnh4eF68MEH9cknn8hms%2Bnxxx%2BXJA0ePFjPPvus7rvvPv35z3%2BW0%2Blk9iRMqaysTNXV1Ro/frx69uyp6OhorVu3TpMnT9aWLVu0bt06OZ1OPfLII8rKytKaNWv00ksv%2BbpsoM0jAAJthGEYCgkJUX19vbKzsz3b3W63evToofXr16uiokIzZ86UJA0cOFAvv/yyNm/erNDQUJ6hBlNqaGiQy%2BXy3KdaU1MjSVq8eLFSU1OVmZmpr776SpI0YsQI5ebmat68eT6rF2gvaAEDJldeXi673a6QkBBJ0rvvvqt33nlHv/nNb/TUU09JuhoCAwIC9Mc//lEbN27Utm3b1LlzZ1%2BWDdxUY2Njs/v4hg0bJrfbrby8PElSXV2dbDabJGno0KGKjo7Wpk2bZBgGv8gALYQRQMDE8vPzNXr0aB07dsyzLTU1VX369NG6deu0YcMGSVJAwNX/lXv37q2LFy%2BqsbHRJ/UC36WgoEBjx45VZWWlXC6XJCkzM1OlpaV64oknJF1d%2B7fpHB46dKjq6uoksaoN0JIIgIBJHT58WCkpKUpOTtagQYM82%2B%2B%2B%2B25lZGQoODhYmZmZeuuttyRdvTfws88%2BU5cuXWS3231VNnBTTef0gAEDPA8nl6Q%2BffpoxYoVysvL07hx41RTU%2BMJe%2BfOnfOsbkPDCmg5tIABEyoqKlJSUpIWLFig119/XW63W2fOnFFtba0iIyPVqVMnHT16VJmZmdq4caOkq8HwxIkT2rVrV7PACJhBYWGhUlJSNHfuXL355pue7TU1NbLb7XK73dq5c6eeeeYZBQUFKSEhQSEhIdq%2Bfbs%2B/fRT/eAHP/Bh9UD7QwAETObbb79VYmKioqOjlZ%2BfL0lKS0vT0aNHdfbsWXXo0EFr1qzRsGHDVF5ersuXL2vr1q2KiYnRj370Ix6IC9M5f/68Bg8erISEBO3evVtut1sLFixQcXGxiouLNWvWLD3%2B%2BOPq27evamtr9frrr%2Bvy5cuyWq2aPXu2EhISfP0VgHaHAAiY0BtvvKE1a9Zo2rRp2r59uzp16qSZM2fKZrPpH//4h7Zs2aL9%2B/cz0oc2oaioSEuWLFFxcbFeeOEFrV27Vo2NjRoyZIhcLpc2btyoYcOGKSMjo9kShUz6ALyHAAiYSNNsXkl68803lZGRoYcfflhr1671LN/W0NCg1NRUhYaG6sMPP1RgYCAXSZheYWGhVqxYoQ8%2B%2BEApKSlav369IiIiZLFYtGnTJs2YMUNr167VhAkTPK8hAALew3o6gIlYLBZPCHzhhRfUrVs3GYahqKgozzHBwcHq0qWLqqqqWBILptcU4vr376958%2BYpJiZGw4cPV%2BfOnT2TOp544gllZGQoNze3WQAk/AHew9UDMImmZ6Nde9FLS0tTY2OjZ1vTxTQwMFAJCQlyu92yWCxcKGFa156bAwcOVFRUlOcXGovFIsMwdOXKFYWHh2vgwIG%2BKhPwOzwGBjCBpvDndrs1cOBAbdu2zbOv6VEZ0tVHvbzyyivasWOHZsyYoYCAAMIfTOtGdxh1795dVqvV87PFYtHbb7%2Bt8%2BfPa/jw4a1ZHuDXGAEEfOza8JeSkiKHw6FHH33Us78p4O3fv1/Lli3TgQMHtGPHDvXt29dXJQO31DRS3XTunjhxQiUlJaqrq9Njjz3mOe6DDz7Qnj17tGnTJu3evVtxcXE%2BqhjwP4wAAj50bfi7//775XA4tHfvXgUHBys9PV3r16/3HBsREaGUlBTt3buX2b8wrabwZxiGvvnmG7322muaPHmyxo0b51nqrUlQUJAuXLigffv2cU4DrYxZwICP/Hf469Spk7Zv367g4GDNmjVLH3/8sfbs2aPExETPa66dJQyYUU1NjSoqKrRw4UKdO3dOpaWlmjt3rpYuXaply5Zp6tSpzY6vrq5Whw4dfFQt4L%2B4kgA%2B4Ha7PeHvgQceaBb%2BZsyYoT179ignJ6dZ%2BJNE%2BIOpbd68WS%2B%2B%2BKIeeOABnT59Wk8//bQKCwtVXV2tyMjIZuGvaeyB8Af4BiOAgI8YhqGhQ4cqMDBQ2dnZnvCXm5urrKwsVj9Am2EYhk6fPq37779fY8eOVXJysmbMmCFJOn36tNLT0zVnzhxNmjRJLper2cQmAL7BJBCgFV178SsuLtbEiRP1q1/9SsHBwZo5cybhD22SxWJRbGysvvzyS0VGRjbbt337dp06dcqzli/hDzAHRgCBVvTRRx/J7XZr4sSJzbbPnj1bWVlZys7O1r333uuj6oCW9fXXX2vkyJGaN2%2Be5s%2Bf7%2BtyAFyDG4qAVnL06FHNnz//uuf2nT59WhEREYQ/tDv5%2BfmKi4vTyJEjfV0KgP9CCxjwsqa2b1FRkfr16%2BdphTXp0aOHXnvttWYPxwXag2XLlikyMpJbGgATogUMtAKXy6WEhASlpqZqxYoVNzyGhe/R3nzxxReKj49XWFgY5zdgMrSAgVbwt7/9TVFRUVqyZIlnW11dnS5fvqx9%2B/ZJYuF7tD%2BDBw9WWFiYJM5vwGwIgEAr2LVrlwYMGCCHwyFJOnjwoH77298qKSlJ77//vsrKynxcIdDyCH2AedECBrxs48aNmjVrloqKivTvf/9bWVlZeuedd/Tkk0%2Bqf//%2BzI4EALQ6AiDgRXV1dZo3b56KiooUERGh4uJiJSUlacqUKRozZoznOJZ4AwC0JmYBA15UW1ur7OxsNTQ0KD4%2BXrt371Z4eLinFdyE8AcAaE2MAAJedvz4cQUEBKhPnz6SmO0LAPA9AiDQimj1AgDMgAAIAADgZxiKAAAA8DMEQAAAAD9DAAQAAPAzBEAAAAA/QwAEAADwMwRAAAAAP0MABAAA8DMEQAAAAD9DAAQAAPAzBEAAAAA/QwAEAADwMwRAAAAAP0MABNCmlJaWymKxqKCgQJKUk5Mji8WiK1eutHotI0aM0IIFC266f9GiRRo4cOBtvafFYtHmzZvvqK7p06drwoQJd/QeANo3AiCAOzZ9%2BnRZLBZZLBZZrVbFx8dr8eLFamxs9Ppnp6Sk6OzZswoLC/ufjv%2Bu0AYA/iDI1wUAaB9SU1O1Zs0a1dXV6Z///KeeffZZBQcH66WXXrruWJfLJYvFooCAO/8d1Gq1qmvXrnf8PgDgTxgBBNAibDabunbtqp49e2rOnDl65JFHtHXrVknS2rVr1alTJ23dulWJiYmy2Wz6z3/%2BI0lavXq1EhISFBISonvvvVcrV65s9r6fffaZBg0apJCQEP3whz9Ufn5%2Bs/03agHn5eVpxIgR6tChg8LDwzVq1CiVl5dr%2BvTpys3N1fLlyz0jlqWlpZKkI0eOaPTo0XI4HOrSpYvS0tJ06dIlz3tWVVXpqaeeksPhULdu3fTWW2/d9t/Rv/71L40cOVKRkZEKCwvT8OHDdejQoeuOO3v2rEaPHi273a7evXvrww8/bLb/1KlTmjx5sjp16qSIiAiNHz/e8z0A4H9BAATgFXa7XfX19Z6fq6urtXTpUq1evVpFRUWKjo7We%2B%2B9p1deeUW///3vdezYMb3xxhvKyMjQunXrJEmVlZUaO3asEhMT9cUXX2jRokV6/vnnb/m5BQUFevjhh5WYmKhPP/1U%2B/fv17hx4%2BRyubR8%2BXIlJydr1qxZOnv2rM6ePavY2FhduXJFDz30kAYNGqTPP/9cn3zyic6fP6/Jkyd73nfhwoXKzc3Vli1btHPnTuXk5NwwvN2K0%2BlUenq69u/frwMHDqhPnz4aM2aMnE5ns%2BMyMjI0ceJEHT58WD//%2Bc81ZcoUHTt2TJLU0NCgUaNGKTQ0VPv27VNeXp4cDodSU1Ob/X0DwC0ZAHCH0tPTjfHjxxuGYRhut9vYtWuXYbPZjOeff94wDMNYs2aNIckoKCho9rp77rnHeP/995ttW7JkiZGcnGwYhmGsWrXK6Ny5s1FTU%2BPZn5mZaUgy8vPzDcMwjL179xqSjPLycsMwDGPq1KnGj3/845vWOnz4cOPXv/71dZ/56KOPNtt26tQpQ5Jx/Phxw%2Bl0Glar1diwYYNnf1lZmWG32697r2u9%2BuqrxoABA2663%2BVyGaGhocbHH3/s2SbJeOaZZ5odl5SUZMyZM8cwDMP4%2B9//bvTr189wu92e/XV1dYbdbjd27NhhGEbz/x4AcCPcAwigRWRlZcnhcKihoUFut1vTpk3TokWLPPutVqv69%2B/v%2BbmqqkolJSX6xS9%2BoVmzZnm2NzY2eiZ0HDt2TP3791dISIhnf3Jy8i3rKCgo0E9/%2BtPbqv3w4cPau3evHA7HdftKSkpUU1Oj%2Bvp6JSUlebZHRESoX79%2Bt/U558%2Bf18svv6ycnBxduHBBLpdL1dXVnnZ4k//%2BjsnJyZ5Zz4cPH9aJEycUGhra7Jja2lqVlJTcVj0A/BcBEECL%2BMlPfqLMzExZrVbFxMQoKKj5Py92u10Wi8Xzc2VlpSTpL3/5S7NgJUmBgYHfuw673X7br6msrNS4ceO0dOnS6/Z169ZNJ06c%2BN71XCs9PV1lZWVavny5evbsKZvNpuTk5Ntq3VZWVmrIkCF67733rtsXFRXVInUCaP%2B4BxBAi%2BjYsaPi4%2BN19913Xxf%2BbqRLly6KiYnRyZMnFR8f3%2BxPr169JEkJCQkqLCxUbW2t53UHDhy45fv2799f2dnZN91vtVrlcrmabRs8eLCKiooUFxd3XS0dO3bUPffco%2BDgYB08eNDzmvLycn311Vff%2BT2vlZeXp/nz52vMmDG67777ZLPZmk00udl3PHDggBISEjy1FhcXKzo6%2Brpa/9dH4QDA/wNlPoYGsQvTxAAAAABJRU5ErkJggg%3D%3D'
p112
ssS'pearson-r'
p113
g75
(g49
S'\x83\xcd\x84\xcd\xa0\xeb\xd4?'
p114
tp115
Rp116
sS'precision_score'
p117
g75
(g49
S'\xa2\x1da\xb0Z\n\xe7?'
p118
tp119
Rp120
sS'confusion_matrix'
p121
g10
(g11
(I0
tp122
g13
tp123
Rp124
(I1
(I2
I2
tp125
g20
I00
S'l]\x00\x00\x00\x00\x00\x00#\x03\x00\x00\x00\x00\x00\x00\x90\x16\x00\x00\x00\x00\x00\x00\x11\x08\x00\x00\x00\x00\x00\x00'
p126
tp127
bsS'accuracy'
p128
g75
(g49
S'/D\x165\xbe\x88\xe9?'
p129
tp130
Rp131
sa.