(lp0
ccopy_reg
_reconstructor
p1
(csklearn.linear_model.base
LinearRegression
p2
c__builtin__
object
p3
Ntp4
Rp5
(dp6
S'normalize'
p7
I00
sS'n_jobs'
p8
I1
sS'rank_'
p9
I21
sS'fit_intercept'
p10
I01
sS'_residues'
p11
cnumpy.core.multiarray
scalar
p12
(cnumpy
dtype
p13
(S'f8'
p14
I0
I1
tp15
Rp16
(I3
S'<'
p17
NNNI-1
I-1
I0
tp18
bS'\xb7H;\x08`\xdc%@'
p19
tp20
Rp21
sS'singular_'
p22
cnumpy.core.multiarray
_reconstruct
p23
(cnumpy
ndarray
p24
(I0
tp25
S'b'
p26
tp27
Rp28
(I1
(I21
tp29
g16
I00
S'\xe6\xc6\x12L\xf3\x00\xb0@`\xc9#\x9cB\x83\x91@z\xa9\xb7\x03\xe8S\x8b@\xd8\xb8\xc4\x95\t\x0f\x83@xJz\x11\x84\xd5s@\xafb\xc7\xae\xa3\x06d@\xcf\x98\x13\x0f/\x7f@@4\x8a\x15\x03\x80\xd2%@\x94T\x7f\x16z\xa2\x16@\x03h\xa6\x87\x10i\x13@\x99\xfe\xabWaG\x04@g\xe6B\xbd\xb7\x1f\xe9?\xc5\x1c/\x05t\xf9\xe0?o#K!\xdb_\xdd?\x17\xd0N\x08$\x8e\xc9?\xfdT\x9e\x1dz\x00\xc2?\xf7\xb9\xf1N\x0e\x9f\xb0?\xdb\xb9\xf6w\xe0\x91\xa5?l\xd3\n\xeb\x02\xa8P?\xe1\r\x11\xa9\x84\xfe)?\xb0\x1a\xca\xed\x04\xa2)?'
p30
tp31
bsS'coef_'
p32
g23
(g24
(I0
tp33
g26
tp34
Rp35
(I1
(I21
tp36
g16
I00
S'\xfbjz`1\x1f\x07?\x18o\x84(]\x167?d\xb9\xa4\x14?\x95r?\xc6@\x961\tG\xea>\xd3"\x92-\x07\xa4W?\x16\t\x18/PmG\xbf\x8a\x02\x06\r\x06\xc92@B\x8aIqL\\\x8e@$l\xe1#\xa7"T@\x1a\xb2\x86\x05S\xca\xcb\xbf\xbb\xff\x93\x98\xdc\xb8A\xc0\x19\xf0\xeed\xd9\x0f\xfb\xbf\xab\xcf\xce\xf7b\xfa\xd1?F=\xcbz\xad\xa0`@\x11\x07\x95\xfa;5\xf6\xbf\xcc\xf4R\xb8{{\xe0?\xf3ah\xb5\x89BF\xc0\xe3[\x04=\x04\xe6\xd6\xbf\xa7e\x8c\xcdT\xe3\x80\xbfx\x17\x14\x89[-\x86?9\xa6\xfc9\xb4\xa5\xb9?'
p37
tp38
bsS'_sklearn_version'
p39
S'0.18.1'
p40
sS'copy_X'
p41
I01
sS'intercept_'
p42
g12
(g16
S'<$\xad\xe0\xf9~\xcb?'
p43
tp44
Rp45
sba(dp46
S'pearson-r'
p47
g12
(g16
S'\x18\x97\xdc]\x9c \xeb?'
p48
tp49
Rp50
sS'plots'
p51
(dp52
S'plot1'
p53
S'data:image/png;base64,iVBORw0KGgoAAAANSUhEUgAAAoAAAAHgCAYAAAA10dzkAAAABHNCSVQICAgIfAhkiAAAAAlwSFlzAAAPYQAAD2EBqD%2BnaQAAIABJREFUeJzs3X1cVGX6P/DPgMAIyggqDD6kSGYSqUmhpGYapuma1bY9mJv5M1PLtiTLbDV1rdjW9aHvalqWuaU9bU/q6lLhw7f0S1ISGZGFiNoaqICCgoAy5/cHnXGezsw583Rmznzer1evVxzOzLlnmDrXXNd9X7dOEAQBRERERBQywtQeABERERH5FwNAIiIiohDDAJCIiIgoxDAAJCIiIgoxDACJiIiIQgwDQCIiIqIQwwCQiIiIKMQwACQiIiIKMQwAiYiIiEIMA0AiIiKiEMMAkIiIiCjEMAAkIiIiCjEMAImIiIhCDANAIiIiohDDAJCIiIgoxDAAJCIiIgoxDACJiIiIQgwDQCIiIqIQwwCQiIiIKMQwACQiIiIKMQwAiYiIiEIMA0AiIiKiEMMAkIiIiCjEMAAkIiIiCjEMAImIiIhCDANAIiIiohDDAJCIiIgoxDAAJCIiIgoxDACJiIiIQgwDQCIiIqIQwwCQiIiIKMQwACQiIiIKMQwAiYiIiEIMA0AiIiKiEMMAkIhkO3LkCHQ6HTZs2KD2UILWhg0boNPpcOTIEfOxG2%2B8ETfeeKPXrrFo0SLodDqvPR8RaQ8DQCICcCkw%2Beabb9Qeis%2BIgZH4T3R0NFJTUzF//nzU1dWpPTxFGhoasGjRIuzevVvtoRBREGqj9gCIKHj06NED58%2BfR0REhNpD8ciaNWvQrl07nDt3Dp999hmef/557Ny5E3v37lUlc/bZZ58pfkxDQwMWL14MAHbZw/nz5%2BPpp5/2xtCISKMYABKRbDqdDnq9Xu1hONXQ0IDo6Gin59x5553o1KkTAGDGjBn4/e9/j48%2B%2BghfffUVMjMzHT6mvr4eMTExXh8vAERGRnr1%2Bdq0aYM2bfi/dyKSxhIwEcnmaA7gAw88gHbt2uH48eO47bbb0K5dO3Tu3Blz5sxBS0uL1eNNJhNWrlyJq666Cnq9HomJiZg%2BfTpOnz5tdd7mzZsxbtw4dOnSBVFRUUhJScGSJUvsnu/GG29EWloa9u/fjxtuuAHR0dF45plnFL%2BukSNHAgDKy8sBXCoVl5SUYOLEiYiLi8PQoUPN5x88eBB33nkn4uPjodfrce2112LLli12z/vDDz9g5MiRaNu2Lbp164bnnnsOJpPJ7jxHcwAbGxuxaNEiXHHFFdDr9UhKSsIdd9yBsrIyHDlyBJ07dwYALF682FzSXrRokdX4LV28eBFLlixBSkoKoqKi0LNnTzzzzDNoamqyOq9nz5743e9%2Bhz179iAjIwN6vR69evXCm2%2B%2BqexNJaKAxq%2BIROSxlpYWjB49GoMGDcLf//535OXlYdmyZUhJScHMmTPN502fPh0bNmzAlClT8Kc//Qnl5eVYtWoVvv32W%2Bzdu9dcWt6wYQPatWuH7OxstGvXDjt37sSzzz6Luro6LF261Ora1dXVuOWWW3DPPfdg0qRJSExMVDz%2BsrIyAEDHjh2tjv/hD39A79698cILL0AQBACtQd2QIUPQtWtXPP3004iJicH777%2BP2267DR9%2B%2BCFuv/12AEBlZSVGjBiBixcvms979dVX0bZtW1nv5%2B9%2B9zvs2LED99xzDx577DGcPXsWn3/%2BOYqLi5GVlYU1a9Zg5syZuP3223HHHXcAAPr16yf5nA8%2B%2BCD%2B%2Bc9/4s4778QTTzyBffv2IScnBz/%2B%2BCM%2B/vhjq3MPHTqEO%2B%2B8E1OnTsXkyZOxfv16PPDAA0hPT8dVV10l/40losAlEBEJgvDGG28IAISvv/5a8pzy8nIBgPDGG2%2BYj02ePFkAIPzlL3%2BxOveaa64R0tPTzT9/%2BeWXAgBh06ZNVufl5ubaHW9oaLC79vTp04Xo6GihsbHRfGz48OECAGHt2rWyXuPChQsFAMJPP/0knDp1SigvLxdeeeUVISoqSkhMTBTq6%2Butzrv33nvtnuOmm24Srr76aqtxmEwm4frrrxd69%2B5tPvb4448LAIR9%2B/aZj508eVIwGAwCAKG8vNzqdQwfPtz88/r16wUAwvLly%2B2ubzKZBEEQhFOnTgkAhIULF0q%2BTlFRUZEAQHjwwQetzpszZ44AQNi5c6f5WI8ePQQAwhdffGE17qioKOGJJ56wuxYRBSeWgInIK2bMmGH187Bhw3D48GHzz//6179gMBgwatQoVFVVmf9JT09Hu3btsGvXLvO5llmys2fPoqqqCsOGDUNDQwMOHjxodZ2oqChMmTJF0Vj79OmDzp07Izk5GdOnT8fll1%2BObdu22c0dtH1NNTU12LlzJ%2B666y7zuKqqqlBdXY3Ro0ejtLQUx48fBwBs374dgwcPRkZGhvnxnTt3xn333edyfB9%2B%2BCE6deqERx991O537ixS2b59OwAgOzvb6vgTTzwBANi2bZvV8dTUVAwbNsxq3H369LH6exJRcGMJmIg8ptfrzXPSRHFxcVZz%2B0pLS1FbW4uEhASHz3Hy5Enzv//www%2BYP38%2Bdu7cadeepba21urnrl27Kl5E8eGHHyI2NhYRERHo1q0bUlJSHJ6XnJxs9fOhQ4cgCAIWLFiABQsWSL6Orl274ujRoxg0aJDd7/v06eNyfGVlZejTp4/XFnIcPXoUYWFhuPzyy62OG41GdOjQAUePHrU6ftlll9k9h%2B3fk4iCGwNAIvJYeHi4y3NMJhMSEhKwadMmh78XA8gzZ85g%2BPDhiI2NxV/%2B8hekpKRAr9ejsLAQc%2BfOtVtEIWdOna0bbrjBvArYGdvnFq89Z84cjB492uFjbIOsQCI3eyj19xR%2BmwdJRMGPASAR%2BUVKSgry8vIwZMgQp0Hb7t27UV1djY8%2B%2Bgg33HCD%2Bbi4QldNvXr1AgBEREQgKyvL6bk9evRAaWmp3fGffvrJ5XVSUlKwb98%2BXLhwQbLnopJScI8ePWAymVBaWoq%2Bffuaj584cQJnzpxBjx49ZD8XEWkD5wASkV/cddddaGlpwZIlS%2Bx%2Bd/HiRZw5cwbApeyTZbapubkZL7/8sn8G6kRCQgJuvPFGvPLKK6ioqLD7/alTp8z/PnbsWHz11VcoKCiw%2Br1UBtTS73//e1RVVWHVqlV2vxPfF3G%2Bovi%2BOTN27FgAwMqVK62OL1%2B%2BHAAwbtw4l89BRNrCDCARWVm/fj1yc3Ptjj/22GMePe/w4cMxffp05OTkoKioCDfffDMiIiJQWlqKf/3rX3jppZdw55134vrrr0dcXBwmT56MP/3pT9DpdHjrrbcCpvy4evVqDB06FFdffTWmTZuGXr164cSJE8jPz8d///tffPfddwCAp556Cm%2B99RbGjBmDxx57zNwGpkePHjhw4IDTa9x///148803kZ2djYKCAgwbNgz19fXIy8vDww8/jAkTJqBt27ZITU3Fe%2B%2B9hyuuuALx8fFIS0tDWlqa3fP1798fkydPxquvvmousRcUFOCf//wnbrvtNowYMcIn7xURBS4GgERkZc2aNQ6PP/DAAx4/99q1a5Geno5XXnkFzzzzDNq0aYOePXti0qRJGDJkCIDWXnz//ve/8cQTT2D%2B/PmIi4vDpEmTcNNNN0nOu/On1NRUfPPNN1i8eDE2bNiA6upqJCQk4JprrsGzzz5rPi8pKQm7du3Co48%2Bir/%2B9a/o2LEjZsyYgS5dumDq1KlOrxEeHo7t27fj%2Beefx9tvv40PP/wQHTt2NAeeotdeew2PPvooZs%2BejebmZixcuNBhACie26tXL2zYsAEff/wxjEYj5s2bh4ULF3rnjSGioKITAuVrNRERERH5BecAEhEREYUYBoBEREREIYYBIBEREVGIYQBIREREFGIYABIRERGFGAaARERERCGGASARERFRiGEjaA%2BYTCb8%2BuuvaN%2B%2BvaJ9OYmIiEg9giDg7Nmz6NKlC8LCQjMXxgDQA7/%2B%2Biu6d%2B%2Bu9jCIiIjIDb/88gu6deum9jBUwQDQA%2B3btwfQ%2BgGKjY1VeTREREQkR11dHbp3726%2Bj4ciBoAeEMu%2BsbGxDACJiIiCTChP3wrNwjcRERFRCGMASERERBRiNBMAfvHFFxg/fjy6dOkCnU6HTz75xOVjdu/ejYEDByIqKgqXX345NmzY4PuBEhEREalMMwFgfX09%2Bvfvj9WrV8s6v7y8HOPGjcOIESNQVFSExx9/HA8%2B%2BCA%2B/fRTH4%2BUiIiISF2aWQRyyy234JZbbpF9/tq1a5GcnIxly5YBAPr27Ys9e/ZgxYoVGD16tK%2BGSURERKQ6zWQAlcrPz0dWVpbVsdGjRyM/P1%2BlERERERH5h2YygEpVVlYiMTHR6lhiYiLq6upw/vx5tG3b1u4xTU1NaGpqMv9cV1fn83ESEREReVvIZgDdkZOTA4PBYP6Hu4AQERFRMArZANBoNOLEiRNWx06cOIHY2FiH2T8AmDdvHmpra83//PLLL/4YKhEREZFXhWwJODMzE9u3b7c69vnnnyMzM1PyMVFRUYiKivL10IiIiIh8SjMZwHPnzqGoqAhFRUUAWtu8FBUV4dixYwBas3f333%2B/%2BfwZM2bg8OHDeOqpp3Dw4EG8/PLLeP/99zF79mxVxk9ERETkL5rJAH7zzTcYMWKE%2Befs7GwAwOTJk7FhwwZUVFSYg0EASE5OxrZt2zB79my89NJL6NatG1577TW2gCEiIlJBi0lAQXkNTp5tREJ7PTKS4xEeFrp79fqaThAEQe1BBKu6ujoYDAbU1tYiNjZW7eEQEREFpdziCizeWoKK2kbzsSSDHgvHp2JMWpLXr8f7t4ZKwERERBR8cosrMHNjoVXwBwCVtY2YubEQucUVKo1M2xgAEhGR6lpMAvLLqrG56Djyy6rRYmJxKhS0mAQs3loCR39t8djirSX8PPiAZuYAEhFRcPJ3%2BY8CR0F5jV3mz5IAoKK2EQXlNchM6ei/gYUAZgCJiEg1LP%2BFtpNnpYM/d84j%2BRgAEhGRKlj%2Bo4T2eq%2BeR/IxACQiIlUoKf%2BRNmUkxyPJoIdUsxcdWqcDZCTH%2B3NYIYEBIBERqYLlPwoP02Hh%2BFQAsAsCxZ8Xjk9lP0AfYABIRESqYPmPAGBMWhLWTBoIo8H672w06LFm0kAuBPIRrgImIiJViOW/ytpGh/MAdWgNAlj%2B074xaUkYlWrkTiB%2BxACQiIhUIZb/Zm4shA6wCgJZ/gs94WE6tnrxI5aAiYhINSz/EamDGUAiIlIVy39E/scAkIiIVMfyH5F/sQRMREREFGIYABIRERGFGAaARERERCGGASARERFRiOEiECIiIpLUYhK4QluDGAASERGRQ7nFFVi8tQQVtZf2Y04y6LFwfCp7NAY5loCJiIjITm5xBWZuLLQK/gCgsrYRMzcWIre4QqWRkTcwACQistFiEpBfVo3NRceRX1aNFpOjnWqJtKvFJGDx1hKHezSLxxZvLeF/G0GMJWAiIgsseREBBeU1dpk/SwKAitpGFJTXsIF3kGIGkIjoNyx5EbU6eVY6%2BHPnPAo8DACJiMCSF5GlhPZ6r55HgYcBIBERlJW8iLQuIzkeSQY9pJq96NA6NSIjOd6fwyIvYgBIRASWvIgshYfpsHB8KgDYBYHizwvHp7IfYBBjAEhEBJa8iGyNSUvCmkkDYTRYf%2BaNBj3WTBrIRVFBjquAiYhwqeRVWdvocB6gDq03Ppa8KJSMSUvCqFQjdwLRIAaARES4VPKaubEQOsAqCGTJi0JZeJiOrV40iCVgIqLfsORFRKGCGUAiIgsseRFRKGAASERkgyUvItI6loCJiIiIQgwDQCIiIqIQwwCQiIiIKMQwACQiIiIKMQwAiYiIiEIMA0AiIiKiEMMAkIiIiCjEMAAkIiIiCjEMAImIiIhCDHcCISIKIS0mIei2uQvGMRMFOgaAREQhIre4Aou3lqCittF8LMmgx8LxqRiTlqTiyKQF45iJggFLwEREISC3uAIzNxZaBVIAUFnbiJkbC5FbXKHSyKQF45iJggUDQCIijWsxCVi8tQSCg9%2BJxxZvLUGLydEZ6gjGMRMFEwaAREQaV1BeY5dFsyQAqKhtREF5jf8G5UIwjpkomDAAJCLSuJNnpQMpd87zh2AcM1EwYQBIRKRxCe31Xj3PH4JxzETBhAEgEZHGZSTHI8mgh1TjFB1aV9ZmJMf7c1hOBeOYpbSYBOSXVWNz0XHkl1Vz3iIFBLaBISLSuPAwHRaOT8XMjYXQAVYLK8QAa%2BH41IDqrReMY3aEbWwoUDEDSEQUAsakJWHNpIEwGqxLpkaDHmsmDQzIYCQYx2yJbWwokOkEQWAu2k11dXUwGAyora1FbGys2sMhInIpGHfV8MaY/f26W0wChr64U3Ilsw6tgeyeuSMD/v3XIt6/WQImIgop4WE6ZKZ0VHsYing6ZjXKsEra2ATb34O0gSVgIiLSLLXKsGxjQ4GOASAREWmSmruJsI0NBToGgEREpElq7iaipTY2pE0MAImISJPULMOKbWwA2AWBwdTGhrRLUwHg6tWr0bNnT%2Bj1egwaNAgFBQVOz1%2B5ciX69OmDtm3bonv37pg9ezYaGzkfg4hIC9QuwwZ7GxvSNs2sAn7vvfeQnZ2NtWvXYtCgQVi5ciVGjx6Nn376CQkJCXbnv/3223j66aexfv16XH/99fj555/xwAMPQKfTYfny5Sq8AiIi8iaxDFtZ2%2BhwHqDYisWXZdgxaUkYlWoMutY7pH2a6QM4aNAgXHfddVi1ahUAwGQyoXv37nj00Ufx9NNP250/a9Ys/Pjjj9ixY4f52BNPPIF9%2B/Zhz549sq7JPkJERIFNXAUMON5NhJm40MT7t0ZKwM3Nzdi/fz%2BysrLMx8LCwpCVlYX8/HyHj7n%2B%2Buuxf/9%2Bc5n48OHD2L59O8aOHeuXMRMRke%2BxDEvkmCZKwFVVVWhpaUFiYqLV8cTERBw8eNDhYyZOnIiqqioMHToUgiDg4sWLmDFjBp555hnJ6zQ1NaGpqcn8c11dnXdeABER%2BQzLsET2NJEBdMfu3bvxwgsv4OWXX0ZhYSE%2B%2BugjbNu2DUuWLJF8TE5ODgwGg/mf7t27%2B3HERETkLnE3kQkDuiIzpSODPwp5mpgD2NzcjOjoaHzwwQe47bbbzMcnT56MM2fOYPPmzXaPGTZsGAYPHoylS5eaj23cuBEPPfQQzp07h7Aw%2B9jYUQawe/fuIT2HgIiIKNhwDqBGMoCRkZFIT0%2B3WtBhMpmwY8cOZGZmOnxMQ0ODXZAXHh4OAJCKiaOiohAbG2v1DxEREVGw0cQcQADIzs7G5MmTce211yIjIwMrV65EfX09pkyZAgC4//770bVrV%2BTk5AAAxo8fj%2BXLl%2BOaa67BoEGDcOjQISxYsADjx483B4JEREREWqSZAPDuu%2B/GqVOn8Oyzz6KyshIDBgxAbm6ueWHIsWPHrDJ%2B8%2BfPh06nw/z583H8%2BHF07twZ48ePx/PPP6/WSyAiIiLyC03MAVQL5xAQEREFH96/NTIHkIiIiIjkYwBIREREFGI0MweQiEhtLSaBzYaJKCgwACQi8oLc4gos3lqCitpG87Ekgx4Lx6dyuzEiCjgsARMReSi3uAIzNxZaBX8AUFnbiJkbC5FbXKHSyIiIHGMASETkgRaTgMVbS%2BConYJ4bPHWErSY2HCBiAIHA0AiIg8UlNfYZf4sCQAqahtRUF7jv0EREbnAOYBERB44eVY6%2BHPnPKJQxUVU/sUAkIjIAwnt9V49jygUcRGV/7EETETkgYzkeCQZ9JDKU%2BjQeiPLSI7357CIggYXUamDASARkQfCw3RYOD4VAOyCQPHnheNTWcoicoCLqNTDAJCIyENj0pKwZtJAGA3WZV6jQY81kwayhEUkgYuo1MM5gEREXjAmLQmjUo2cxE6kABdRqYcBIBGRl4SH6ZCZ0lHtYRAFDS6iUg9LwERERKQKLqJSDwNAIiIiUgUXUamHASARERGphouo1ME5gERERKQqLqLyPwaAREREpDouovIvBoBERORV3NOVKPAxACQiIq/hnq5EwYGLQIiIyCu0vKdri0lAflk1NhcdR35ZNbcmo6DHDCAREXnM1Z6uOrTu6Toq1Rh05WBmNUmLmAEkIiKPaXVPVy1nNSm0MQAkIiKPaXFPV1dZTaA1q8lyMAUjBoBEROQxLe7pqtWsJhHAAJCIiLzA1Z6uANAhOgImkxA0GTMtZjWJRAwAiYj8QOurSJ3t6So603AB972%2BD0Nf3BkUc%2Be0mNUkEnEVMBGRj4XKKlJxT1fb12pLXECxZtLAgN7%2BS8xqVtY2OpwHqEPrfrUZyfH%2BHhqRx3SCIGjra6gf1dXVwWAwoLa2FrGxsWoPh4gCkLiK1PZ/tGKIo8XN7ltMAr46XI1HNhXizPkLDs/RobUkHNUmDJV1TebjloFxIOwoIv79AFj9DbX89wsFvH8zA0hE5DNa7o3nTHiYDmE6nWTwB7S%2B/tMN9r8Xs4MP3ZCMLd9VqJ41lcpqGjWYwaXQwgCQiMhHlKwizUzp6L%2BB%2BYG7CyPEYPmVL8rtfmdZOvZ3EBjIpWoidzAAJCLykWBcReqtsqsvFkaomTUND9NpLkin0MYAkIjIR4JtFak3F6u4WkDhLi1nTdUSCHMtyf8YABIR%2BUgwrSKVWqzibtlVbAszc2MhdIBXg0AgsLKmwSxUVqiTPfYBJCLyEttefwAke%2BOJPy8cn6p6tsVXW56JCyiMBusMZ5JBjw7REU6bRrsSKFnTYMZ9jkMbM4BERF7gLJMSSKtIHZX7fLlYRWoBxecllQ6zg66yhYGUNQ1mobpCnS5hAEhE5CE55dM9c0eqPs9KKki9Jc0o6/Hull0dLaBw1l7l1v5JePW3VcCOeu8FQtY02IXyCnVqxQCQiEgmR9kzALIzKWreSJ0Fqev3HpH1HN4uuzprr3LNZXEBkzXVomBcoU7exQCQiEgGqezZPdddFvCZFDnlPp0OkJri58uyq1R7Ffbe861gW6FO3scAkIjIBWfZsxV5P8t6DjUzKXLKfeKmoI7m5AHqlF3Ze893gmmFOvkGVwETETkhZ4WsHGpmUuQGn1OH9LRbsWs06LnfrQaJbXqAwF6hTr7DDCARkROusmeuBEImRW7wmZVqxDPjUll2DRHc5zi0MQAkInJCSek2kMqnlpSU%2B8Syq7jg5d8HfmUgqGGcaxm6GAASETkhN3s2O6s33v36l4DMpDjblcNRkMrdIUIL51qGJp0gCN7eoSdk1NXVwWAwoLa2FrGxsWoPh4h8oMUkYOiLO11mz/bMHQkAAZ1JkRPYSS14EV8F5wOSFvD%2BzQwgEZFL91zXHSvySu2OO8qeeZpJcdRr0FtBpKtyH3eHIAodDACJiCQ4yphZ8naJ1x%2BlV2flPm/sDuHLAJaIvIcBIBGRA1KlUNHsrCswa%2BTlXgtu5Gwn5%2BvSq6e7Q3DuIFHwYB9AIiIbzkqhQGsp9N2vj/nleuKxxVtL0CK1VYeXeLI7hBjA2mYQxQA2t7jCK2N0psUkIL%2BsGpuLjiO/rNrn7xdRMGMGkIjIhjdKoYF8PSnu7g4RCHMHmX0kUoYZQCIiG56WQgP9elLc3R1CSQArxZPsXSBkH4mCDTOAREQ2PCmFBsP1nHFndwg15w4GQvaRKBgxACQisuFuKTRYrueK0t0hvDF30N3FL4FSPicKNiwBExHZcLcUGizXkzumzJSOmDCgKzJTOjq9thjASp2hQ2tGT%2BncQcD14pdAKZ8TBRsGgEREDoilUKPBOmtlNOh90pLF39fzJn/OHbSdK9ipXZSsMXpaPucKY9IaloCJiCQoLYUG2/W82bTZH3MHHc0VNMZGoUN0BGobLki27QnTAafrm%2BW/GBtcYUxaxL2APcC9BIkoWPkqqFESVOaXVePedV%2B5fM53pg1G7flmyT2K5dzEdHBvH%2BNA2huZu6x4D%2B/fGisBr169Gj179oRer8egQYNQUFDg9PwzZ87gkUceQVJSEqKionDFFVdg%2B/btfhotEZE6AqVtity5g%2Bk94lyu9DW0bQNXsZDSZtqB0qAbaP2bDX1xJ%2B5d9xUee7cI9677CkNf3MkWN%2BQ2zQSA7733HrKzs7Fw4UIUFhaif//%2BGD16NE6ePOnw/ObmZowaNQpHjhzBBx98gJ9%2B%2Bgnr1q1D165d/TxyIiL/8WVQozRIkTt3cP/R0y7nCtaevwhnQ5bTi9CWN/obekOgBOykLZoJAJcvX45p06ZhypQpSE1Nxdq1axEdHY3169c7PH/9%2BvWoqanBJ598giFDhqBnz54YPnw4%2Bvfv7%2BeRExH5j6%2BCGneDFDmLX7y5glfuc7WYBOw9VOXV53RHIGUhSVs0sQikubkZ%2B/fvx7x588zHwsLCkJWVhfz8fIeP2bJlCzIzM/HII49g8%2BbN6Ny5MyZOnIi5c%2BciPDzc4WOamprQ1NRk/rmurs67L4SIyMd80TbF02bMrha/eLMBtpzncjQ/0tPndBf7HJKvaCIDWFVVhZaWFiQmJlodT0xMRGVlpcPHHD58GB988AFaWlqwfft2LFiwAMuWLcNzzz0neZ2cnBwYDAbzP927d/fq6yAi8jVv7zrSYhKwYW%2B5T0ulclbwGmOjYIx1PebT9U1Ofy%2BVyXREqr%2BhN8kNxP9TXMH2NKSIJjKA7jCZTEhISMCrr76K8PBwpKen4/jx41i6dCkWLlzo8DHz5s1Ddna2%2Bee6ujoGgUQaESorLOXuOpLeIw75ZdVO3w%2BlmTJ3toIblWrEkm0lLp/72d%2BlAtDh4bcLnZ63ZNuPGJ2W5PBv6yyTactfDbrlBuJv5h/Fm/lH2Z6GZNNEANipUyeEh4fjxIkTVsdPnDgBo9Ho8DFJSUmIiIiwKvf27dsXlZWVaG5uRmRkpN1joqKiEBUlr%2BkoEQWPUOrzJi68mLmx0K6FihjG3No/CcOX7nL6fki1R3HGna3gHs/qLSvAjIuR9/9mZ%2BVSV%2BVWS876Gzqj9IuGq4Ddltwt9Ig0UQKOjIxEeno6duzYYT5mMpmwY8cOZGZmOnzMkCFDcOjQIZhMJvOxn3/%2BGUlJSQ6DPyLSplBaYSnuZtGJM7zDAAAgAElEQVR00YTHs65AYqz9wouHbkjGq1/Yl3Qt3w8lmTLAs63g3th7RNY1Tp5t9Hh%2Bo9zHzxqRgj1zR7rVU1BpKxdnK6Ud4cIQkksTGUAAyM7OxuTJk3HttdciIyMDK1euRH19PaZMmQIAuP/%2B%2B9G1a1fk5OQAAGbOnIlVq1bhsccew6OPPorS0lK88MIL%2BNOf/qTmyyAiP/J08UIwkdpFY3ZWb/TsFIOE9q1l3%2BFLd7l8P9rrI2RnyjzdCu7M%2BQuyrqNkIYbUuXKfY8jlnRV/HlxlOp1l7KR2WZHChSEkh2YCwLvvvhunTp3Cs88%2Bi8rKSgwYMAC5ubnmhSHHjh1DWNilhGf37t3x6aefYvbs2ejXrx%2B6du2Kxx57DHPnzlXrJRCRn4XKCkup4ONEXRNW5pVizaSByEzpiPyyalnvR35Ztexrd4iOQM4dV3u0FVyHthGoPe94qzdxzqKYXZQzv1E817Ycm94jTtHj5fLGFw3LldL/Ka7Am/lHXV7Xl%2B1pKPhpJgAEgFmzZmHWrFkOf7d79267Y5mZmfjqK9fbEBGRNvmiJUqgkVNm/fPHxRh5ZaKC1ym/tBjVJgyjUh3PxZabcZsyJBkr836WnLNomV10Nb9RPFdq3uet/ZPw6hflsq4ll7e%2BaISH6cy/lxMA%2BrI9DQU/TcwBJCJyh7dbogQiOQsbquubMTgnD0eq6mU9Z2avTkgyyHtPKuuaJNu/yN0KbtbIy102ixbJaSztbN7nq1%2BU46EbkmVdSy5vf9GQ%2B775sj0NBT9NZQCJiJSQ2xIlWG6kjlaYyg0qauovYEVeKTpER6C2wXm5dXBKRywcn4oZG523XBFJjcHZimSRmHFz1iza9nWPSjU6PddVOXbLdxX43ydHYP/R015pC%2BTtLxpyVnL7uj0NBT9VAkDLXnquLF%2B%2B3IcjIaJQIdV%2BQys3UqmS5j3XXebW87l6P8akJWF2Vm%2BsyCt1%2BVzOAhsxY/f0R9/jTIP1gg9DdITVz5YlUJHSFj5yy7H7j5722rxPX3zRkFoY4m57Ggo9qgSA3377rdXPhYWFuHjxIvr06QOgtR2L2JyZiMhTroKEYL%2BROlthujLvZ6dZPVtnGi5gdtYVePfrYy7fj1kje%2BOdgl9QWec4oFIS2NgGfwBQ23DB6QpZd1bWqjHv01dfNFxtoUfkjCoB4K5du8z/vnz5crRv3x7//Oc/ERcXBwA4ffo0pkyZgmHDhqkxPCLSELlBQrDeSOWUNKXKq1J6dorGnrkjXb4f4WE6LLq1NbARryeSG9iI43fE2QpZd1fWqjXv01dfNBxlRYnkUH0O4LJly/DZZ5%2BZgz8AiIuLw3PPPYebb74ZTzzxhIqjI6JgpjRICMYbqZyS5umGC7glLRH/KT4heZ6lhPZ62e%2BHp4GNuytk3X2cmvM%2Bg/mLBmmP6gFgXV0dTp06ZXf81KlTOHv2rAojIiKtCIU%2Bf3JLlSmd2wNwHQDGx0QoDn48CWzcLcm6%2Bzhvl2OVbu0WrF80SHtUDwBvv/12TJkyBcuWLUNGRgYAYN%2B%2BfXjyySdxxx13qDw6IgpmodDnT26pMjOlIz4s/K/LljDPTUhzKyPlbmDjbknWk1KunKylnMAulPaQJu1RPQBcu3Yt5syZg4kTJ%2BLChdZJwG3atMHUqVOxdOlSlUdHRMEsFPr8yS1pDu7lunXL9BuSMbZfF1nXVZr58nT8tllJuY9L7xGH/LJqu3E6y1rKCew82dqNKBDoBEEIiN2i6%2BvrUVZWBgBISUlBTEyMyiNyra6uDgaDAbW1tYiNjVV7OERko8UkYOiLO10GCXvmjgzqeVhiMAI4XuwxO%2BsKzBp5OT4vqXTYbqVdVBv87ff9MLafvIDF25kvqfGLfxFXq4ClHvfgsJ74sPA4auovvV5X45QK7CzHMirViKEv7pTMpmrlc6VlvH8H0E4gFRUVqKioQO/evRETE4MAiUuJKIiJ872ASzdwUbD1%2BQNaA9r8smpsLjqO/LJqtJha/z8ptfuFaEXez0h/7nPM2FjosN1KfdNFhMm8GzjbRWPmxkLkFlcoe1FOxu9q9w3xcYmxUVbHE2OjkJWagHVfHrEK/oDWOZ9S45Szbd7irSX4SuaeyVI7oBAFAtVLwNXV1bjrrruwa9cu6HQ6lJaWolevXpg6dSri4uKwbNkytYdIREFMC33%2BANdZN7GkuWpnqcPmzI4CP0uOWqbYcrf1ihxj0pIw8spEvJV/BEdrGtAjPhp/zOyJyDZyIlPrazVeMOHzkpOSZwsS45S7aCj/cJWMMQX33FLSPtUDwNmzZyMiIgLHjh1D3759zcfvvvtuZGdnMwAkIo8Fe/sNJfPN3v36F8XPL3c1tC9XVTsKcF/bU%2B5WufbMeefBLiTGKT9gk/e5Cea5paR9qgeAn332GT799FN069bN6njv3r1x9OhRlUZFRFoTrO03lGTdXAVorrgKgJSuqpa7UMSdBRXO3he5bF%2BP0hXVWtlDmkKT6gFgfX09oqOj7Y7X1NQgKirKwSOIKNR5awVqMFCSdfO05OgqAFKyqlruQhF3y8qeBrviOC0pXVGthT2kKXSpvghk2LBhePPNN80/63Q6mEwm/O1vf8OIESNUHBkRBaLc4goMfXEn7l33FR57twj3rvsKQ1/c6dbig2CgJOvmbslRh9bgzFXGKr1HHFzFNGE6oPpso%2ByFIkoCXEt5JZXOByLD6fpmq5%2BVLBpyd%2BEKUaBQPQP4t7/9DTfddBO%2B%2BeYbNDc346mnnsIPP/yAmpoa7N27V%2B3hEVEACcXea0qybmIGS0lmTEnGav/R0zC5qLmaBODZrT/Izui506y7xSTg46Ljsh7nzJJtJRidZp1ZVLJoKNjnllJoUz0ATEtLw88//4xVq1ahffv2OHfuHO644w488sgjSErS1v/Iich9vlyBGsiUNEoWM1jOmj3bUrIaWm6wZtt6xZLtQhF3mnUXlNc4vYZcUgtWlAR2wTq3lEj1APDYsWPo3r07/vznPzv83WWXXabCqIgo0ITCvr6OuArqBFhn78akJWF2Vm%2BHrWBsLRjXFw8MSZYdMHtzVasYTLqzE4g326tIPRcDO9I61ecAJicn49SpU3bHq6urkZycrMKIiCgQhcK%2Bvt4ya2RvGGOlgzVxzp%2BS4A%2B4FKw5e4RO5tOJwaQ7zbq9GYi681wtJgF7D1Xh75/%2BhL9/ehB7S6vMTbmJgoXqAaAgCNA5%2BD/GuXPnoNezhxIRtQqFfX0dEUvfUsTSt2UAEh6mw6JbU6GDd3dAsQzWpLjaxMnRghOlCyrkBKJyyFn4Yiu3uALpz32O%2B17bh1W7DmHVrjLc9/o%2BpD/3uWYXIpE2qVYCzs7OBtC66nfBggVWrWBaWlqwb98%2BDBgwQK3hEZEPudPGxZ1SoRa4W/oek5aEh25Ixrovy62CMp0OmDYs2eWcP6m/0Zi0JKyeOBCz3il0uSDEtkWKSAw%2Bba/xv0%2BOwP6jp2XNu5Nqw6KE0iA4t7hCshR/puECZmwsxFoNLkQibVItAPz2228BtGYAv//%2Be0RGRpp/FxkZif79%2B2POnDlqDY%2BIfERufzhbzm76Wu695m7pO7e4Aq9%2BUW4XHJkE4NUvynHNZXFOd9hw9jeKi4l0GfwBQExUG5xrumh1zBAd4fIaEwZ0dfnckqt1Y6PQeNGE2oYLkoFhmA5Yde81igK1FpOARVukM7GiRVt%2B0NxCJNImnSC4Stj71pQpU/DSSy8hNjZWzWG4pa6uDgaDAbW1tUE5fiJ/k2rjIt4q5bRxcTeADFb5ZdW4d91XLs97Z9pgcwawxSRg6Is7JTOHYrZ0z9yRdoGKnL9R00UTHnu3SOErufQ8UjcdJZ8DkaNM5ecllZj5W6bO0bVenjgQY/sp%2B6zI/TsA1n8LCky8fwfAKuCVK1fi4sWLdsdramrQpk2bkP3DEGmNt9q4hFrvNXdK3%2B6WjeX%2Bjf7%2Bh/5uvhrn5Vp32vk4Wq0rlR305IuCksVFXIhEwUD1APCee%2B7B%2BPHj8fDDD1sdf//997FlyxZs375dpZERkTd5s41LKLXocKf07W7ZWO7fCAKcBqWe8FY7H29/UVCyuEhrC5FIm1RfBbxv3z6HW77deOON2LdvnwojIiJfYBuX1gxbflk1NhcdR35ZtezWIXJXyYrPX3rinKznFQMV8XH/kbmKtaq%2BSbJ1i7d443MgflGYMKArMlM6epQlzkiOd9paR2SMjdLcQiTSJtUzgE1NTQ5LwBcuXMD58%2BdVGBER%2BUKotnEReTp30VVGy9HzOxMfE4HKuka8lPcz3ik4hsq6JtmvJaG9HpkpHbFm0kAs2vKDoscquUYgEVvruNplZdGtV2l2OgJpi%2BoZwIyMDLz66qt2x9euXYv09HQVRkREvuCqd5uj/nBaIS6ssA3OxD2M5faPk8poST2/MzX1FzD7vSKsyCuVHcDZ/o3GpCVh2V3ebdcVyJ%2BDMWlJmH5DssNm19GR4WwBQ0FF9Qzgc889h6ysLHz33Xe46aabAAA7duzA119/jc8%2B%2B0zl0RGRt6jZxsWdvoPevLYv9zB29vzeJPU3qjqnLPtn%2BbcPtnY%2BUq11AOB8c4vfx0PkCdUDwCFDhiA/Px9Lly7F%2B%2B%2B/j7Zt26Jfv354/fXX0bt3b7WHR0ReJNm7zYdtXPzdNsY22DSZBJ/uYexq4Ybo4Rt74d2v/4ua%2BmbF1wCk/0ZKS7Xi8wDw6%2BfAU3ICbU8CeSJ/Uz0ABIABAwZg06ZNag%2BDiPzAn21cpHraiaVXJf3m5F7PNqjp0DZC1mPdXfQg93FhOp3bwR8ALBjnODCT06YmPiYS88f1hdHQ1upvHUztfOSukF7x%2BU8YcnnngH4tRIBKAWBdXZ25v19dXZ3Tc9kHkEh7/NHGxdelV1tSweaZ8xdkPb7qbBNaTILiscjPwLn/GnUAlmwrQVZqosOt2lyV9p%2B/Pc1h8BhM7XzkBtqrdpVh1a4yTTcnJ21QJQCMi4tDRUUFEhIS0KFDB%2BgczKgVBAE6nQ4tLZxXQUTKebPvoCvemIe3ZNuPeG1PueKgQW6j6MyUjli165BbYxPfq0Ev5OF0w6WA1jLI8Xdp39%2BUlrp9lWUm8hZVAsCdO3ciPr51hdeuXbvUGAIRBTBvLNrwZ99BufPwXFEaNIjv05irEvHG/x21%2B73loorBvTp63LzZMvhzNN5ALul6%2BplyFWjb8kWWmcibVAkAhw8f7vDfiYi2H/gV8zcXo6becaZJLn/2HZQbRHZoG%2BG0JKwkaJDT9882AydVqnWXo/E6y6b6YzW21N7Ani4EclbqluLNLDORt6kSAB44cED2uf369fPhSIgokORsL8ErX5TbHa9wo5zmzh667uoUEyXrvNX3DcTBijos2faj5Dlyggap%2BYa2bBduONsj92zjBZxrUj7lRm6Q44/V2A4X4URH4EyDfdDtTolW6v1zRcu721DwUiUAHDBgAHQ6nXmenzOcA0gUGrYfqHAY/IkEKCun%2BavvYG5xBRZtKXF6jhhsDu7VUXbfPKmgQe58Q3Hhxug06/dLqlT7eUmlrKBSyXjFbFxeSSVe33vE7vfenCcnuQjHQfAHuF%2BitXz/9h6qkjWvMtB2NSECVAoAy8sv/U/%2B22%2B/xZw5c/Dkk08iMzMTAJCfn49ly5bhb3/7mxrDIyI/azEJmL%2B52OV5FbWN%2BOpwNcJ0Opw829iaedO1NiN2VFL0xuIEZ2VLOZk422DT09K03PmGzjJzYqlWfG3/PvArEtrrsXriNXjm42LZK5edjVdOiVp8357%2B6Hu0j4rAYDf363V3EY67JVrx/UvvEYeXdx%2BCsy2dw3RAeo84hSMj8j1VAsAePXqY//0Pf/gD/ud//gdjx441H%2BvXrx%2B6d%2B%2BOBQsW4LbbblNjiETkRwXlNbJ71D2yqVAyQHFUUvRkcYKzsuWoVKOsoCMxNgqLbr3KPCZPS9NKy4lS50u9tvsH98D/KFwtHBcdYTVeuSVq0ZmGC7jv9X0wtG2D/zckGbNG9lYUCHq6CMfdEu3%2Bo6edBn8AYBJaz%2BMcQAo0qu8F/P333yM5OdnueHJyMkpKnJdViEgblNyAnWWnpPbWldpD1xlX%2B/eu2nlIVtCx7K4BVgGpWJoG7DvzySlNKy0niv0FLUm9toraRsXBH2BdXvekJU7t%2BYtYkVeK9Oc%2Bd7g/cotJQH5ZNTYXHUd%2BWbX5dXk6x87dEq0/V5oTeZvqAWDfvn2Rk5OD5uZL3/6bm5uRk5ODvn37qjgyIvIXb82REoOOxVtL7IIeJVw1kQaAN/5Per6iJUdz/sTStNFg/bqNBr3L%2BXBiBlGuJdt%2BxNAXd5oDKl/sHXym4QIKymsAeKclzpmGC3aBfG5xBYa%2BuBP3rvsKj71bhHvXfWV%2BXe5%2BfnRozXq6uxDInyvNibxN9a3g1q5di/Hjx6Nbt27mFb8HDhyATqfD1q1bVR4dEfmDGNR4o5ee5byujOR4t0q/cppISy0usCV185dbmnY0B1Fc3CI3iLNcbGFoG%2BmV99mWmOXyVrbLctGP1AIV8XWtnjhQ8efHGwuB/LnSnMjbVA8AMzIycPjwYWzatAkHDx4EANx9992YOHEiYmJiVB4dEfmD5Ypdb2Wm8koqkf1%2BkVttR5T09as9f8Htm7%2BrvnnO5iCumTQQi7b8gMo616uKLVe8PjXmSpfnu0MMdL2Z7RIX/bja0m/JthIsGNcXD7/9rezn9sYuJf5aaU7kC6qXgAEgJiYGDz30EJYvX47ly5dj2rRpDP6IQoxYFrUtb3aMicTjN/VW/Hyv7z0iOX/P0fwyS3KDmClDegJwPJdPAHBLWmuGz51ytKs5iN8eO%2B3gytLEzGiNzDY0ctmWUcWsmLdCnvyyallb%2BsXFROHliQPhKtbq0DYCmx4chD1zR3ql/6An5XwiNameAQSAt956C6%2B88goOHz6M/Px89OjRAytWrECvXr0wYcIEtYdHRH4iVRYFgPe%2B%2BUXWNlw6ADodHK7OlNv7TW5pb9bI3uhjbG%2BXpdPpAEEA1u89gvV7jyhueCxnDqKznonOxMdEerwlnMhRlstVVkz5NeU94uTZRkwY0BWrcI3DTKA41r/%2B/moMubyT4lE4E%2Bjb4BE5onoGcM2aNcjOzsYtt9yC06dPmxs/x8XFYeXKlSqPjoj8zdGKXWcrZy2JAYazhJvlHEFnY3B2PQGtu2yEh%2BkwJi0Je%2BaOxDvTBmPqbxlB2%2BvLzTyKvLW3sCPHahpkvZeWdGht9WKMtd7xRCrL5Swr9vLEgegQHSHrmkkGPTJ7yQvWEtrr0WISEBcThf83pCfiYyJljdVb3FlpTqQmnSAI3lwMplhqaipeeOEF3HbbbWjfvj2%2B%2B%2B479OrVC8XFxbjxxhtRVVWl5vCcqqurg8FgQG1tLWJjY9UeDpHmuWounGTQ45Y0I9Y72HXC1kv3DMCEAV3dvp4xVo97My5Dz07RSGivR3qPOAxfuktybGLWcM/ckS6Dg81Fx/HYu0UuX4O71k4aCACytjQTR7pm0kDFWS6pJtq5xRWYsbHQ5XXFaw59cafLbOyCcX2xZNuPVq8nPiYCtw/oiqxUIzNyZIX37wAoAZeXl%2BOaa66xOx4VFYX6%2BnoVRkREgcq21OZoJ5CC8hpZAaCceX5j0pJgMgkOS4qVdY1Ykfez%2Bef4mEinzayV7Drhy7YhYgl8z9yRdgHd6fomuyDKdrGEOztm2O44MirViLWTBmLRlhJU1tkHoLYlc1cLLW7tn4RH3v7WLkA8XX8B6/cewXUM/ojsqB4AJicno6ioyGp3EADIzc1lH0CiAOdsmzRfcbVy1tX8PQDoEB0Bk0lAi0lwmcFasu1HWeOSu5OJnBXGGcnxLgNKd9kGorbv5ei0JK/%2BTbcf%2BBXzNxejpv5S2xwxwNv79EgUlNegsvY8auqbEd8uCsZYZVv6LRiXiiXbnK8SVrrfL1EoUD0AzM7OxiOPPILGxkYIgoCCggK88847yMnJwWuvvab28IhIgrMWJWqufHS2CEEkbj3mary%2BmIt3pKrBaeAs/u7qrgb878%2BnvHptS44yb4DrAFuJnO0lDherVFj0JZT7WZFaaCGnZ6OrzKsaX2SI1Kb6HEAA2LRpExYtWoSysjIAQJcuXbB48WJMnTpV5ZE5xzkEFKqk9nq1nC%2BmdvsLV/MFAdfj9dVcvA7REVaNpMVAFJA3L88b9BFhGNGnMyYN6onBChYtyA2Wth%2BowMNvO5/nlyRzTqQzcv9GUnM%2BA/WLDPkW798qB4CCIOCXX35BQkIC9Ho9GhoacO7cOSQkJKg1JEX4AaJQ1GISMPTFnV5Z7CDnWu5mZlpMAr4qq8b/lVVhQ/4R1De1OB3v/z45AvuPnrbLLt277iuPXoMc7rVH8Z4O0RH46x1Xuwx45AZLLSYB1z2fJ6uE/c60wR5lHPPLqmX9jRxdJxi%2ByJBv8P6tcglYEARcfvnl%2BOGHH9C7d29ER0cjOjpazSERkQveKLnJ4UlmRk72z3a8g3N2WAUsSb%2BtLPVWzzxXY1DTmYYLmLGxELOzemPWyN4Og2ypYKnSQTm3oLzGq3MinXF3OzZXvRY5d5C0TtU%2BgGFhYejduzeqq6vVHAYRKSD3hu3Jjd3VLhjO%2BulJPdYV24ClsrYRj7z9LW7tHzoZoBV5pbj2uc%2Bx/cCvVsflNKZevLUELb8trNl7SP7cRSUrnltMAvLLqrG56Djyy6rNi3ik%2Bho6245NyRcZIi1SfRHIX//6Vzz55JNYs2YN0tLS1B4OEbkg94btbisTdzIzYqm4sq4RS/79g1cyauK1tnxXgUdHXo5/7DykeqbOH043XMDDb3%2BL6f89g3ljWwMrucHSqp2H8O7Xx2QH3/ExEU73SrbkKiMstUpYKmPsjy8yRIFM9QDw/vvvR0NDA/r374/IyEi0bdvW6vc1Nfz2RRRI0nvEIUxiqzWRTgdcvGhy2WbFEaUlZiXlXqXEa/3PzkNef%2B5A98oX5ejfLQ5j%2ByXJDoIs%2ByLK8dyENFmfD7nlZyWNqn39RYYo0KkeAHpzu7fVq1dj6dKlqKysRP/%2B/fGPf/wDGRkZLh/37rvv4t5778WECRPwySefeG08RFq0/%2Bhpp8Ef0LoP7h/fKHBrNaWSzIxUYEDesWBzMUanGX0SBE2/IRlj%2B3VxeZ7SjLDceafuzh0k0grVAkCTyYSlS5diy5YtaG5uxk033YSFCxfaZQDleu%2B995CdnY21a9di0KBBWLlyJUaPHo2ffvrJ6ariI0eOYM6cORg2bJi7L4UopCgpiTlaIOCK3GCjU0wU5nzwnUfBX3xMhFWDYrJWXd%2BMgvIaWc215YqPicRzE9Iwtp%2B8z4OvFh056xfpbO4gkVaotgjk%2BeefxzPPPIN27dqha9eueOmll/DII4%2B4/XzLly/HtGnTMGXKFKSmpmLt2rWIjo7G%2BvXrJR/T0tKC%2B%2B67D4sXL0avXr3cvjZRKFGSDbJdICBHRnI8jLHS19Chde4XdPCo7LtgXF98NS8LHaIj3H4OyzFpNU44ebbR6UILpf5xzzWygz/x%2Bt48z5I4d9BosP68GQ16toAhzVMtA/jmm2/i5ZdfxvTp0wEAeXl5GDduHF577TWEhSmLS5ubm7F//37MmzfPfCwsLAxZWVnIz8%2BXfNxf/vIXJCQkYOrUqfjyyy/deyFEPhKouxOk94hTtE2Z0gzN5yWVaLwo3bMPaM3MVJ1rkjlie0kGPSYO6oFnPjpg1ZDZHeKYpg5Nxrov7Xe9CHZiwC%2B10EKpT0sqERamk/159vVcPaVzB4m0QrUA8NixYxg7dqz556ysLOh0Ovz666/o1q2boueqqqpCS0sLEhMTrY4nJibi4MGDDh%2BzZ88evP766ygqkt/lv6mpCU1Nl246dXV1isZJJFeg7k4gjsudPWrlZGhczenrEB2BnN8aFueXudc%2BSgcgrWssrlqY63IuoxxxMRG4pnsHfFj4X8%2BfzInoyHA0NDsOjH3ptMXfekxaEkwmAXM/%2Bh5nGy%2B69Xxv5h/Fm/lHZX%2Be/TFXz5vb3xEFC9VKwBcvXoReb/2NLSIiAhcu%2BH4%2BztmzZ/HHP/4R69atQ6dOnWQ/LicnBwaDwfxP9%2B7dfThKClWe9MBTY1xyOcvQtPaOq8LTH37vdI5ZVJswjEo1osUkwGQS0KGt8/KtbRInyaBHVmoCPi856XHwFx0Z/lsm9AJ2HDzl87mEzRJZUV9bsu1S%2BT63uAKPvP2t28GfJbmfZ3f7/Gmdo56IREqolgEUBAEPPPAAoqKizMcaGxsxY8YMxMTEmI999NFHLp%2BrU6dOCA8Px4kTJ6yOnzhxAkaj0e78srIyHDlyBOPHjzcfM5lMAIA2bdrgp59%2BQkpKit3j5s2bh%2BzsbPPPdXV1DALJq9TancBVudnZuFxxlaFR0salsq4Jq3aW4t2vf5F1/u0DusBoaAudrjXDM/CyOFy1MFfpS7AiLhhoaG7xa0buoslvl7Iilu8zkuPd/gw4Yvl5Hn5FAt7edxRHaxrQIz4af8zsicg2l/IT7vT507JArRBQcFEtAJw8ebLdsUmTJrn1XJGRkUhPT8eOHTtw2223AWgN6Hbs2IFZs2bZnX/llVfi%2B%2B%2B/tzo2f/58nD17Fi%2B99JJkUBcVFWUVsBJ5m7%2B2WbMk52bialxSXGVo3GnjsiKvVPa5H357aUeLDwv/iyEpHRVn/mKiwq32EW4bGYbzzaaQaj1z8myj258BZ8TPc%2BrCXFjuSv/89h8xbViyuRE1wLl6IiVb8hE5o1oA%2BMYbb3j1%2BbKzszF58mRce%2B21yMjIwMqVK1FfX48pU6YAaG043bVrV%2BTk5ECv19vtOtKhQwcA4G4kpCpvrHi0zeal94jD/qOnHd405d5M3N0NITE2CotuvcrhDanFJGDRFu9llFypqG3EB4XHFT/OMvgDgIZmlVJxKkpor/fpjhiCzYfAJLQ2ogZgFQSG%2Blw97l9M3qR6I2hvufvuu5I1S4wAACAASURBVHHq1Ck8%2B%2ByzqKysxIABA5Cbm2teGHLs2DHFq4uJ/M3TFY%2BOsnm2u3aI2b1RqUbZNxP3GwFL34RW7SxFZR232Qp0HWMikZEcL3tP3PiYCEzOTEbPTtGoOtuEJdt%2BdPva674sxxM3X2lVDg5lalQISLs0EwACwKxZsxyWfAFg9%2B7dTh%2B7YcMG7w%2BISCFPVjxKZfNsS55idu/xrN6ybybuNgI%2BUee4LJVbXKGolEvqmTCgC8J/a9vi6jPQMSYS%2BfNuMgdsLSYBr%2B0pd7uBtEkA3so/gqnD2KcV4P7F5F38WkUUQNxd8ahkkYZ4zht7j8gak20jYCUcNYIWx6pErF5T31WDyqjU1oV0rj6bOgDP355mla0TH%2BNJmf9oTYMHj9YW7l9M3sQAkCjAuLM7gdIJ%2BgKAM%2BfltS2xbQTsqvWKo2uJmUR3xgq0ZqHI/4yxUVbZZnc%2Bm2PSkvD/hvR0eww94qPdfqzWiFlYqYkV4i453L%2BY5ODXaqIApHTFo7slnw5tI1wGgqfrLzU/H5OWhPZREbjv9X2Kr7X30CmcPNuI0hNnFT%2B2Z8cY1yeR151tuogXtpUgK9Vo/vy5sxp3VKoR62VmnC2F6YA/ZvZ0/wVoDPcvJm9iAEgUoJSseHS35PPA9T2xcofzuXhLtv2I0WlJ5pvK4JSObs0HXLWrzK0xxsdE4I%2BZPT2aS0buqW9qwet7j%2BD1vUesWgMpXY3r7hzSacOSuQDEBnsikrfwvywiDXBVGrIlloquk1EqsizfAt6Z16XE7QO6IrJNGBaM8981Q4kxNgodol2X9T3ZicbZ/EFHwnTA9Bus%2BwDSJWPSkrBn7ki8M20wXrpnAN6ZNhh75o5k8EeKMANIpAHiDXbGxkKX51qWiqrONTk9V2RbYh6VakSH6AicafD91o215y9iydYf8GHhLz6/Vij5f0N6YlSqESZBwH2vuS7pi8H3oi0/uNVnTipzlWTQ48%2B39MWJs42SO4GQvVDviUieYwBIFGIsS0X5ZdWyHmNbYi4or/FL8AcAHxT%2B1y/XCSU6AP8prsSfx6Xi3wd%2BdXm%2Bpdbt%2BA7hsazeiq/L3TyIAgcDQCINkNNaJSYqHA9c3xPX9%2BqEwb9lDuT0HYyPiURl7Xnkl1Wbb9bsMxbcLFdmuzN/dEXez%2BhjbOdWyZGZK6LAwACQSAPktFapb2rB6l1lWL2rzGpCv9SqQvz2c3V9M2a//x2A1gUZt/brguNnzvvkdZB/5ZVU4plxqW4t0OCWY0TBjZMsiDRAaUbOckK/VG83R2rqL2BD/lF8/uNJd4dKAeTjota9kd1p8l1R24gNe8vNDb6JKLgwACTSAKVlPMsdOpovmmBoG4mnRvfBgnF9sfwP/REfo6zZMwWnmvoLKCivMX8JiI%2BJVPT4Jdt%2BxNAXd7q1MpiI1MUSMJEGiHP5lO4GUlHbiME5eaipv7SgIz4m0upn0jYxezwmLQn1jRfxxAcHFD1ezCZL7QRCRIGJGUAiDXB3r14AdsFeTX2zN4ZEQeLzkhPmf5e7PaAlR/s9E1HgYwBI5GUtJgH5ZdXYXHQc%2BWXVfr0pRkeG%2B%2B1apA3bv69A80UTACC%2BXZRbz2G73zMRBT6WgIm8KLe4wmGjW19v0ZRbXIGZGwu5UwYpZhKAt/KPYOqwXjDGureloIjtgYiCBzOARF4iBmG28/A82ULLklRmUewByOCP3LX751PIL6tGeo84JMlYDS7F3T2picj/mAEk8gJnQZiA1obKnvRNc5RZNMZG4d6My3ChRVC0%2BIPI1pelVfiytApJBj1u7Z%2BEV78oB2DfF1KKDq07zGTI2FuaiAIDM4BEXuCqEbMnc6QkM4t1TViRV4pVuw4pfk4iRyprG/HqF%2BV46IZkWX0hAeu9pdkUmih4MANI5AVy5z7tPVSlaA9UlnfJn8Rs9ZbvKvC/T47A/qOnkVdSiY%2BLjku2BjL6YY4rEXkfA0AiL5A798kyWydncYicLd6IvEnMVu8/ehqZKR2RmdIRz4xLRUF5DU6ebUSnmChAB1Sda5L9RYaIAg8DQCIvEBsxK9lPtbK2ETM2FmJ2Vm/07BTj8GaaV1LpmwETuWCZ1Q4P0yEzpaOKoyEib2MASOQFYiPmmRsLoYO8yfPiOSvySs3H4mMi8NyENIzt1wUtJsG8VyuRN%2BgAxMVEyNrphSt6ibSNi0CIvETcT1Xu5HlHauov4OG3v0XO9hIUlNd4dUu29vo2YKEudIl/%2B%2BcmpCHJoJf8LOjQOj2BK3qJtI0ZQCKZWkyCeR6U1NynMWlJGJVqNJ/384mzWL2rTPG1XvmiHI0XTN4aOpIMeiwY1xePvP2t156TAlt0ZDgamlvMP1su1ggL0znMVnNFL1HoYABIJIOSHT7E%2BVK5xRV4p%2BCY29d8M/%2Bo24%2B1tWBcX4SF6WCIjsCZBu9lFSnwiNMIRqclSX5hEbPVdr0luaKXKGToBEFghwk31dXVwWAwoLa2FrGxsWoPh3xEaps1MT%2ByZtJAuxtmoG3NFhMVjvqmFtcnUlCaNSIFvRPbK16VKyerTaRFvH8zA0jkVItJwKIt0jt8AMCfPy7GyCsTEdkmzPyYQOvdx%2BBP24Zc3tmtVbpc3UsUuhgAEjmxamcpKuuc9%2BGrrm/GoBfy8MD1yejZKRpVZ5vYu4/8QukWbMz4EZGIASCRhNziCqsWLc6cbriAFXk/%2B3hERJcoXbChZB4rEWkf28CQ5rWYBOSXVWNz0XHkl1WjxeS6ONt80YR5Hx3ww%2BiI3GM06B3OP3VEcj/p2kbM3FiI3OIKXw2TiAIUM4Ckae5kPXKLKzDnXwdwrumiv4ZJpMiCcX3xwJBkWZk/Z3NSxb1/F28twahUI8vBRCGEGUDSLHeyHrnFFZixsZDBHwWs%2BOgIRcHfhr3lTuekinv/FpTXeHGURBTomAEkn/H3hHPL63VqF4VFW36QlfVoMQl4K/8Iyqvr8cm33HqNAtugXvL%2BO3KU/XbGcu9fItI%2BBoDkE/6ecK70ZidmPR5/txDbvq%2BEjGmBRAEhpXN7l%2Be404eSe/8ShRYGgOR1UjcfsfQqd%2BK6p9eTY%2BuBSq%2BNg8gfpPr2NV804a38IzhSXY9Pin6V/d%2BD0lYyRKQNDADJq5RMOAfgcYk4EJsuE/lKXHQEBveyDwBztpdg3ZflijPZ3PuXKHQxACSvKiivkTXhfNXOUrz79S8el4hdXY9IS3LuuBoAkF9Wbf7itPPgCaz7styt5zMa9Fgwri8MbSOxueg4m0MThRAGgORVcieSO2qwLLdEbLnYo/TEWcVj1AHMGFJQEb8cAcDQF3d65UvPgnF9kWRoiyXb2ByaKBQxACSv8mQiuZyeZEoXezhiNOjRMz4a%2BWx7QUFiwbi%2BAOD2XFdL4py/JENbPPK2/%2BbqElFgYQBIXpWRHI8kgx6VtY1u3agse5JlJMdbzRE8Xd/s8IblSpgOVnOjTCYTfqiodWN0RJ6xzD7LzUTrACzZ9iMEQfBK8Ae0BpRLtrE5NFEoYwBIXhUepsPC8amYubHQ7ganpPSaV1KJ7PeLrDJ9YTr3Sre2E%2BNPnG1241mIPGe0KOXKzWSLX4q8eX1D20jZzaGlVh0TUXBjAEheNyYtCWsmDbS7wRkNetxz3WVYkfezy%2Bd4fe8Ru2NKVzjaZv6I/E0HID4mEvPH9YXR0NZqgcWoVCMKymvwn%2BIKvJl/1Hdj0AF/v7M/unS4dP3NRfIanrM5NJF2MQAknxiTlmS%2BwVm2eQGAd78%2BJlki1qH1huVp4HZlYjscPHHOsych8pAAYMmENIztZz%2BXLjxMZ86u%2BTIAfGhYMn6f3s3qmNy5umwOTaRdDADJZyxvcJakSsT47WfBC1k7Bn8UKJZsK0FYGBx%2BIQoP07mcNysu2hAEASfqmmRPgwjTAdOGJWPe2FS738m9JptDE2mXThC8cbsNTXV1dTAYDKitrUVsbKzawwkqucUVePqj73Gm4YLV8ejIcDQ0t6g0KiJpN6cm4qousdjwf0dw2uZz64z4RadDdITV592y3Yq4mw1gP28WANZMGggATs/5xz0DcOJsE47WNKBHfDT%2BmNkTkW3CJMcl55pcBUxaxfs3IP1/ByIfq3VwE2XwR4HqisR2eCzrCjw7/ipFjxODK9svO2K7ldziCvO8WaPBuuRqNOjNgZirc343oCumDuuFv0xIw9RhvZwGfwBkXZOItIslYPI7bt9GwahNWGtAZYz1zrw423YrUvNmLduwyDlHCbnPZ9l8nbuFEGkDA0DyC8sbSNXZJm7fRkHnpR2luDKpPUalGj3qdWnJtt2K1LxZS3LOUcLV8zlqvs7dQoiCHwNA8jlv7N5BFAjEbJ2zhUzuCNR2K%2BI8Qe4WQqQ9nANIPiXeQBj8UbCzzNZJzZ9zVyC2W3E2VUM8tnhrCVrYbJMoKDEDSD7DuX6kRXkllchM6Wg3f%2B5IVT1W5JUqzgp2jIlEZe155JdVB9TcuoLyGu4WQqRhDADJZ1zdQIjUkmTQ49b%2BSXj1i3IAygK21/cewXXJ8RiTlmQ3f66Psb3i6Q7V9c2Y/f535nEFytw6uWXpQC1fE5FzLAGTz/DGQIHq7mu7Y97YVLfLuFKlzzFpSdgzdyQ2PTgIHdpGKH5ey9YwauNuIUTaxgwg%2BYzcG8OCcX3RqX0Uvvy5Ch8U/tfHoyICVlqs6G0fFYH8w1UAdGgTpsPKHaUuH%2B%2Bs9BkepsOQyzvhr7%2B/2mGjZWdsW8OoWQ7mbiFE2sYAkFxS0gPM8txOMVEwxupxos75DeSBIcn4vKSSwR/51Zx/HUB0RDFOnms2HzPGRuGmKztjx8FTLh/vKsMtLhSxLQnHx0Sgpl56J5FAmVsXHqaTXO0s/te/cHxqwMxZJCJlGACSU0p6gDk6Nzoy3JzVkLqBAK0ZDyJ/Otd0EeearI9V1jWhss518AfIy3DbLhTpFBOF/ztchdW7ylw%2BNhCmUEgFscYAmqtIRO5hAEiSlPQAkzrXvLWbTQRoeQPJL6vmYhEKKLrfPq/eKH2KC0Vyiysw54PvZH/WA2Vunbd3HyGiwMAAkBxy1QPMcp4Sfvt3Z/OchN9%2BOXVIT2SlGq1uIJV1DP4osAhOPswClJc%2Bpb4gORKIc%2Bu8vfsIEalPU6uAV69ejZ49e0Kv12PQoEEoKCiQPHfdunUYNmwY4uLiEBcXh6ysLKfnhxolPcCUtHv5pOhXpPeIs7p51tjW4Yg0REk/TM6tIyJ/0UwA%2BN577yE7OxsLFy5EYWEh%2Bvfvj9GjR%2BPkyZMOz9%2B9ezfuvfde7Nq1C/n5%2BejevTtuvvlmHD9%2B3M8jD0xKeoApmatUXd%2BMwTl5Vm0u4mMiFY%2BPSC1i9lvuDhhKviAZDXpur0ZEfqGZAHD58uWYNm0apkyZgtTUVKxduxbR0dFYv369w/M3bdqEhx9%2BGAMGDMCVV16J1157DSaTCTt27PDzyAOTkh5gSucq1dRfsOp1ZjS0VTw%2BIrVYZr/lkPsFadaIy7Fn7kgGf0T/v727j4qyzvsH/r5mYGYUYRRRZiASFB9SIAQWQxe1llZuyfS%2B7edDi1nrmutP/eW63ne5WVBaWumdnXS1DLXVk6SdNk39YYpr3Rq7nFQ2EfOBxbWUoXwCxQSZ%2Bd5/uDM5MMA8P13v1zlzTnNxXXN9Ps3gfPg%2BklcERQHY3NyMI0eOICcnx3JMoVAgJycHZWVldr3GzZs3cfv2bURGtj/upqmpCQ0NDVaPYGVeA6yjTiiFBFxtbLKc6wgBoHDnCRw%2BcwkXr/14Z9A9UQCxt7Cz9w%2BkEYlR7PYlIq8JigLw0qVLMBqNiI6OtjoeHR0Ng8Fg12s8%2B%2ByziImJsSoiW1u2bBm0Wq3lERcX51Lc/sy8BlhHTAKY88Ex7KsydHquLYaGJvyq6G/4/fa/dzjonsgf2VvYdfbHlIQ7Syv506QPIgp%2BQVEAumr58uUoLi7Gn//8Z2g07f%2BjvmjRItTX11se3377rRej9L7cJD3WPJ6GzholXvq0Ckf%2BedU7QRF5kF6rwR8fT3NrwXb3H1OtX5OTPojIV4JiGZioqCgolUrU1dVZHa%2Brq4NOp%2Bvw2hUrVmD58uXYv38/UlJSOjxXrVZDrVa7HG8g6RGmQkdj3c3jodb/T43XYiJyt%2B5dQrHmV2l4oG9PKBUSFAq4dQcMLqhMRP4mKApAlUqF9PR0lJaWYsKECQBgmdAxd%2B7cdq97/fXX8corr2Dv3r3IyMjwVrgBxR92IyDyFHMJt3xiMkYkRlmOe6Jg44LKRORPgqIABIAFCxZg%2BvTpyMjIQGZmJlatWoXGxkY89dRTAIAnnngCsbGxWLZsGQDgtddew4svvogPPvgA8fHxlrGC3bp1Q7du3XyWh7/xl90IiDyho4LOEwUbF1QmIn8RNAXg5MmT8cMPP%2BDFF1%2BEwWBAamoqSkpKLBNDzp8/D4XipyGPa9euRXNzMx577DGr1ykoKEBhYaE3Q/drmQmR6N41FNdutr95PVEg6hmmwuf/%2BSBUIe0PhWbBRkTBShKC8y%2Bd1dDQAK1Wi/r6ekRERPg6HI8oqazFb7cc9XUYRFYkCYjQhKD%2BxxaXXmfrzAdY4BHJkBy%2BvzvDWcDULvMWVkT%2BZt6DiS4XfwDHuBKRfLEApHY5soUVkbv06Bra4c9nZsfD5KaOC45xJSK5CpoxgOR%2BbB0hX5iUcQ%2BG3tujzQzcyLBQTEy7B7u%2BrnXbHyZXG5vc8jpERIGGBSC1i60j5As7/16L/8q9r80M3KuNzZjzwVHY0/YnAdB2CcG1TrqJl%2Bw%2BiTFJei7FQkSywy5gAnBnvF9Z9WXsqLiAsurLMJoErjY2d7oLCJG71dbfQnnNFcsM3PGpschMiMSS3VV2F38A8NSIBLvvRUQkN2wBJJRU1rbpbuPSL%2BRLrYcfODIe1by2X1OLyal7ERHJAQtAmSuprMXsLW271Vj8kbsoJHS4naAtrYcf2FukzX0wEb97eACUCgll1ZeduhcRkRywAJQxo0mgcOcJu7rViJwhAVg9dSh6hKnx/fVbiOqmxu%2B3VaCuocnm507CnRa8zIRIq%2BP2FmkjEqMs4/kyEyKh12pgqL/l0L2IiOSAYwBlbPWBszA0cBYkeUZkWCjW5qdhbEqMZSzfiMQoFD46BMBPY/XMzM8Lxg1uMynDXMy1NyRVAqBvVcwpFRIKxg12%2BF5ERHLAAlCmSipr8eb%2B074OgwJA663SuqmVdl33wiND2t1jd21%2BGnRa61Y9nVaDtflpNq9xtphz5l5ERHLAreBcEKhbyRhNAj9/7QAXeSa7PD92EJJiu1uWYzGZBH5V9LdOr%2BtsmzWjSVgt85KZENlpa5ytCUv6f0366KiYc%2BZeRBS8AvX72504BlCGuMMH2UshAdOHJ1i1AhpNwi1j68zLvDgiN0nfZn1Ae4o5Z%2B5FRBTMWADKEJe9IHvNzE5o0wVs7o6dveUoJMCqCPTG2DoWc0REruMYQBlovchzVDe1r0MiP5FyTwRmjUxos%2BC3QgJmjUzAorGDbV7HsXVERIGNYwBd4OsxBPaMa9rzdS0W76jElcZmy7EuIQpAkvDjbaO3QyY/0q9XV5T%2B/kEAQHOLCZvLzuGfV26iT2RXTMuKb9PyZwvH1hFRIPL197c/YBdwgOpoMLx5jNR7/1ON0m9%2BaHPtj3bukEDB7f/9YoDlv1UhCszI7uvwa7A7logoMLEADEDt7d5RW38Lv91yFFpNCOpvtfgkNgoc3AGDiEi%2BWAAGGKNJ4KVPqzrcvYPFH3WEO2AQEREngQQYLuFCruAOGEREBLAFMOBwCRdyiQQ8nZ3AWbpERDLHFsAAw3Fb5AohgHe%2BqEFJZa2vQyEiIh9iARhgMhMiodeyCCTXvPRpFYwmrgBFRCRXLAADjHkXBiIJQM6gKAzs3c3ha2vrb6G85or7gyIiooDAAjAA5Sbp8cfH09rs3kDy8vTIBLz35DA8PCTaqes5npSISL5YAAaosSl6rJ461NdhkIc9kqLvdJu2rL5RTr32uUs3XQ2PiIgCFGcBB7CxKTFYp5Da7AiikAAO7wp8kWGheGvKUPz3pNQOt2l7oF9PdO8aims3bzv0%2Bqv2n8ZAXTfOCCYikiHuBewCf9lLsPV%2BrOl9emBz2Tks2X3SZzGR62aMiMcL44bYdW5JZS1%2Bu%2BWoQ69vXhD60LMPcU1AIpIVf/n%2B9iV2AQcB836s41NjkdWvJ1QhCkSFq30dFrkopnsXu2fq5ibpsS4/DboI%2B993AU4GISKSK3YBBymuFxj4luw%2BifcO1aBg3GDkJunbtPRmJkRatdzlJunx8GCd5ZwzdTew%2Bi9nO70PJ4MQEckPC8AgYasbWK/VcNu4AGeov4XZW47i6ZEJ2Pn3Wqv3U6/VWIpDM3NrMACUVV%2B2qwBs/cdCZ4UmEREFPhaAAaCzL%2BSSyto2E0Eiw0IxNK47C8AAZ%2B4AfueLmjY/MxeHa/PTbE7kMC8abqi/BVsdyeYxgJkJkZZjtj5LtgpNIiIKbJwE4gJvDCLt7Au5pLIWs7cctfkFbyZJd7YAo%2BDT2UQO8%2BcDgNVnxHzm3cVje58lW%2BcSEQUyTgLhJBC/Zv5Cbt2KZ2752fP1Rbz0aVWHxR/wU/HHXrzg09lEjtwkPdbmp0HXavtAnVZjVdAZTaLdz5L5GLePIyIKHuwC9lOdfSFLABbvqMSVRvvWfpMAdO%2BqwpXGZjdGSc6IDHP/%2B9DRRI7Wk0NsDSMor7nS4XCBuwtN8xhDIiIKXCwA/ZQ9X8j2Fn8/nd%2BMMJUSjc1G1wMkp72Qdx902i7YV2XAJxUX3VIMdjbr%2B%2B7JIbbYOxOYM4aJiIIDC0A/5akv2gHR4Tj27TWPvDbZR6ftgqx%2BPZHVryeezxuM8por2F9lQNHhcw6/lq2JHM6wd9kgLi9ERBQcOAbQT9n7RdtN7VgNz%2BKvLW2XEHQ2PLKrSonNT2VCF6Fp91wJHY%2BzlHBnAs/dxZq5Ze6FcUOwLj8N%2BlZj9fRaDWaNTIAEtLmv%2BXnBuMEuL9NinjHcUW6tYyciosDFFkA/Ze8SHj82t3g7tKAiAXhtYgpMJuD/ftD%2BVmr/Pel%2BZA/shcJHB2P2lqOQYHtW7czsBLz7ryVbbP28o2Kto7F6Q%2B/t0WY2uM6Ny7MoFRIKxnWcmzsKTSIi8g9cBsYFnp5G3tkSHvNzBuDN/afdft9gYV4L8di312yOl2y9vl1JZS0Kd56AoaHJco4uQo3CR4dYFVn2LM3jibX0vLFAM9cBJCI54DIwLABd4ut1AJtaTHimuMIj9w1EM7MT8NCg6DYFkrlwMjTcwpUbTYgMU0Gn7WKzgLK3yOrsvEDeTSOQYycisgcLQBaALvHWB%2BjuL%2BSoMDUgAZduNOH7hia8suekx%2B4bKBTSneJv0djBvg6FiIgCAAtAjgEMCOaJAiWVtVj40d9lv73b5l9n4nTddfzzyk30ieyKaVnxUIVwPhMREZG9WAAGCHu2fJMDhQQM69sT2QN6%2BToUIiKigMVmkwBgNAk89/Fx2Rd/AGASwJF/XvV1GERERAGNBWAAWH3gDK7dtH/Xj0CjUjo2wYC7URAREbmGBaCfM5oENhyu8XUYbqcJkfBYWixOL/03bHwy06FruRsFERGRazgG0M%2BV11xB/Y/Btdjz0Lju%2BGj2cMvSIpcamzq54ifcjYKIiMh1bAH0c8HY3flfuYOs1pVzpEWPu1EQERG5jgWgnwu07s7OSjNbLXid7UML3Jn9%2B8fH07gbBRERkRuwAPRzmQmR0EWofR0GHku7x67znvlFf5vHpX89bLXgmfehNZ9ny%2BqpQzE2hcUfERGRO7AA9HNKhYTCR4f4OgyMSOwJXUT7rZES7rTuzftFf6zLT4Nea32uTqvB2vz2W/Byk/RYm58GXavr9FoN1uWnYWxKjMs5EBER0R3cCs4F3txKpqSyFs99fNxny8FsnfkA6n9sxuwtRwHAak1Cc6vd3QWes/vJch9aIiLyNG4FxwLQJd7%2BABlNAn%2Btvoyyf1wCICFCE4JX//83Hr2nhDutd4eefQhKhYSSylq89GmV1XZ0eq0GBeMGc3weEREFBBaAXAYmoCgVEkb0j8KI/lEA7hSEf/y82mOtguZ2t7vH7eUm6fHwYB1b6YiIiAIYC0A/11GXqFIhYfl/JOO3/%2BqWdTddOy17SoWErH49PXJPIiIi8jwWgH7MVnerLkKNqZn3Ij4qDL3DNXh4sA7r8tNQuLMKhgb3rRk498FE/O7hAWzZIyIiCkIsAP1USWUtZm85itYDNA0NTXhz/xnLc/P4u5X/5378quhvbrv/iMQoFn9ERERBKqiWgVmzZg3i4%2BOh0WgwbNgwlJeXd3j%2B9u3bMWjQIGg0GiQnJ2PPnj1eirRjRpPAS59WtSn%2BbDHU38LsLUdR%2Bk2dW%2B5tXs6F260REREFr6ApAD/88EMsWLAABQUFOHr0KO6//36MGTMG33//vc3zv/zyS0ydOhUzZszAsWPHMGHCBEyYMAGVlZVejryt8porVt2%2BHTEXiTsqLtp1fmRYKGaNTLAszHw3W5M%2BiIiIKPgEzTIww4YNw89%2B9jOsXr0aAGAymRAXF4d58%2Bbhueeea3P%2B5MmT0djYiF27dlmOPfDAA0hNTcW6devsuqenppHvqLiAZ4orHL4uMiwUVxtvt9ty2DNMhbJFv4AqRMHlXIiISLa4DEyQjAFsbm7GkSNHsGjRIssxhUKBnJwclJWV2bymrKwMCxYssDo2ZswYfPLJJ%2B3ep6mpCU1NTZbnDQ0NLkZum7P7//57aiw2HD4HCbYXan7l35OgCrnT6MvlXIiIiOQrKLqAL126BKPRiOjoaKvj0dHRMBgMNq8xGAwOnQ8Ay5Ytg1artTzi4uJcD96GzIRI6LWadvfFbU/OYJ3N7dTa24bNvJzL%2BNRYZPXryeKPiIhIJoKiBdBbFi1aZNVq2NDQ4JEiUKmQUDBuMGZvOdqmNc8W824d5hY8tuwRERFRazA13QAADhZJREFUR4KiAIyKioJSqURdnfVM2Lq6Ouh0OpvX6HQ6h84HALVaDbVa7XrAdshN0mNtflqbcXqt2Zq4wYWaiYiIqCNB0QWsUqmQnp6O0tJSyzGTyYTS0lJkZWXZvCYrK8vqfADYt29fu%2Bf7Qm6SHoeefQhbZz6At6ak4nc5A6CLsK97l4iIiKg9QdECCAALFizA9OnTkZGRgczMTKxatQqNjY146qmnAABPPPEEYmNjsWzZMgDAM888g1GjRmHlypXIy8tDcXExvvrqK7z77ru%2BTKON1q15cx9KZPcuERERuSRoCsDJkyfjhx9%2BwIsvvgiDwYDU1FSUlJRYJnqcP38eCsVPDZ7Dhw/HBx98gMWLF%2BMPf/gD%2Bvfvj08%2B%2BQRJSUm%2BSsEu7N4lIiIiVwXNOoC%2BwHWEiIiIAg%2B/v4NkDCARERER2Y8FIBEREZHMsAAkIiIikhkWgEREREQywwKQiIiISGZYABIRERHJDAtAIiIiIplhAUhEREQkMywAiYiIiGSGBSARERGRzATNXsC%2BYN5Fr6GhwceREBERkb3M39ty3g2XBaALrl%2B/DgCIi4vzcSRERETkqOvXr0Or1fo6DJ%2BQhJzLXxeZTCZcvHgR4eHhkCTJrmsaGhoQFxeHb7/9VlYbUMs1b0C%2BuTNveeUNyDd3ueYNBG7uQghcv34dMTExUCjkORqOLYAuUCgUuOeee5y6NiIiIqB%2BWdxFrnkD8s2decuPXHOXa95AYOYu15Y/M3mWvUREREQyxgKQiIiISGaUhYWFhb4OQm6USiVGjx6NkBB59cDLNW9Avrkzb3nlDcg3d7nmDcg790DGSSBEREREMsMuYCIiIiKZYQFIREREJDMsAImIiIhkhgUgERERkcywAPSANWvWID4%2BHhqNBsOGDUN5eXmH52/fvh2DBg2CRqNBcnIy9uzZ46VI3cuRvE%2BcOIGJEyciPj4ekiRh1apVXozUvRzJe/369cjOzkaPHj3Qo0cP5OTkdPr58GeO5P7xxx8jIyMD3bt3R1hYGFJTU7F582YvRus%2Bjv6OmxUXF0OSJEyYMMHDEXqOI7lv2rQJkiRZPTQajRejdR9H3/Nr165hzpw50Ov1UKvVGDBggCz%2BbR89enSb91ySJOTl5XkxYrKLILcqLi4WKpVKbNiwQZw4cULMnDlTdO/eXdTV1dk8//Dhw0KpVIrXX39dVFVVicWLF4vQ0FBx/PhxL0fuGkfzLi8vFwsXLhRbt24VOp1OvPnmm16O2D0czfvxxx8Xa9asEceOHRMnT54UTz75pNBqteK7777zcuSuczT3v/zlL%2BLjjz8WVVVV4uzZs2LVqlVCqVSKkpISL0fuGkfzNqupqRGxsbEiOztbjB8/3kvRupejuW/cuFFERESI2tpay8NgMHg5atc5mndTU5PIyMgQY8eOFYcOHRI1NTXi4MGDoqKiwsuRu87R3C9fvmz1fldWVgqlUik2btzo3cCpUywA3SwzM1PMmTPH8txoNIqYmBixbNkym%2BdPmjRJ5OXlWR0bNmyYmDVrlkfjdDdH875bnz59ArYAdCVvIYRoaWkR4eHh4v333/dUiB7jau5CCDF06FCxePFiT4TnMc7k3dLSIoYPHy7ee%2B89MX369IAtAB3NfePGjUKr1XorPI9xNO%2B1a9eKvn37iubmZm%2BF6DGu/p6/%2BeabIjw8XNy4ccNTIZKT2AXsRs3NzThy5AhycnIsxxQKBXJyclBWVmbzmrKyMqvzAWDMmDHtnu%2BPnMk7GLgj75s3b%2BL27duIjIz0VJge4WruQgiUlpbi1KlTGDlypCdDdStn83755ZfRu3dvzJgxwxtheoSzud%2B4cQN9%2BvRBXFwcxo8fjxMnTngjXLdxJu%2BdO3ciKysLc%2BbMQXR0NJKSkvDqq6/CaDR6K2y3cMe/cUVFRZgyZQrCwsI8FSY5iQWgG126dAlGoxHR0dFWx6Ojo2EwGGxeYzAYHDrfHzmTdzBwR97PPvssYmJi2vwR4O%2Bczb2%2Bvh7dunWDSqVCXl4e3n77bTz88MOeDtdtnMn70KFDKCoqwvr1670Rosc4k/vAgQOxYcMG7NixA1u2bIHJZMLw4cPx3XffeSNkt3Am73/84x/46KOPYDQasWfPHrzwwgtYuXIlli5d6o2Q3cbVf%2BPKy8tRWVmJ3/zmN54KkVzAfVuIfGT58uUoLi7GwYMHA3ZgvKPCw8NRUVGBGzduoLS0FAsWLEDfvn0xevRoX4fmEdevX8e0adOwfv16REVF%2BTocr8vKykJWVpbl%2BfDhw3HffffhnXfewZIlS3wYmWeZTCb07t0b7777LpRKJdLT03HhwgW88cYbKCgo8HV4XlNUVITk5GRkZmb6OhSygQWgG0VFRUGpVKKurs7qeF1dHXQ6nc1rdDqdQ%2Bf7I2fyDgau5L1ixQosX74c%2B/fvR0pKiifD9Ahnc1coFEhMTAQApKam4uTJk1i2bFnAFICO5l1dXY1z585h3LhxlmMmkwkAEBISglOnTqFfv36eDdpN3PF7HhoaiqFDh%2BLs2bOeCNEjnMlbr9cjNDQUSqXScuy%2B%2B%2B6DwWBAc3MzVCqVR2N2F1fe88bGRhQXF%2BPll1/2ZIjkAnYBu5FKpUJ6ejpKS0stx0wmE0pLS63%2BCr5bVlaW1fkAsG/fvnbP90fO5B0MnM379ddfx5IlS1BSUoKMjAxvhOp27nrPTSYTmpqaPBGiRzia96BBg3D8%2BHFUVFRYHo8%2B%2BigefPBBVFRUIC4uzpvhu8Qd77nRaMTx48eh1%2Bs9FabbOZP3iBEjcPbsWUuxDwCnT5%2BGXq8PmOIPcO093759O5qampCfn%2B/pMMlZvp6FEmyKi4uFWq0WmzZtElVVVeLpp58W3bt3tyx9MG3aNPHcc89Zzj98%2BLAICQkRK1asECdPnhQFBQUBuwyMI3k3NTWJY8eOiWPHjgm9Xi8WLlwojh07Js6cOeOrFJziaN7Lly8XKpVKfPTRR1ZLJVy/ft1XKTjN0dxfffVV8dlnn4nq6mpRVVUlVqxYIUJCQsT69et9lYJTHM27tUCeBexo7i%2B99JLYu3evqK6uFkeOHBFTpkwRGo1GnDhxwlcpOMXRvM%2BfPy/Cw8PF3LlzxalTp8SuXbtE7969xdKlS32VgtOc/bz//Oc/F5MnT/Z2uOQAFoAe8Pbbb4t7771XqFQqkZmZKf76179afjZq1Cgxffp0q/O3bdsmBgwYIFQqlRgyZIjYvXu3lyN2D0fyrqmpEQDaPEaNGuX9wF3kSN59%2BvSxmXdBQYH3A3cDR3J//vnnRWJiotBoNKJHjx4iKytLFBcX%2ByBq1zn6O363QC4AhXAs9/nz51vOjY6OFmPHjhVHjx71QdSuc/Q9//LLL8WwYcOEWq0Wffv2Fa%2B88opoaWnxctTu4Wju33zzjQAgPvvsMy9HSo6QhBDCR42PREREROQDHANIREREJDMsAImIiIhkhgUgERERkcywACQiIiKSGRaARERERDLDApCIiIhIZlgAEhEREckMC0AiIg8bPXo05s%2Bf7%2BswiIgsWAASUVApKyuDUqlEXl6eQ9c9%2BeSTmDBhgoeiIiLyLywAiSioFBUVYd68efjiiy9w8eJFX4dDROSXWAASUdC4ceMGPvzwQ8yePRt5eXnYtGmT1c9PnDiBRx55BBEREQgPD0d2djaqq6tRWFiI999/Hzt27IAkSZAkCQcPHsTBgwchSRKuXbtmeY2KigpIkoRz584BAC5fvoypU6ciNjYWXbt2RXJyMrZu3erFrImIHMcCkIiCxrZt2zBo0CAMHDgQ%2Bfn52LBhA8zbnV%2B4cAEjR46EWq3GgQMHcOTIEfz6179GS0sLFi5ciEmTJiE3Nxe1tbWora3F8OHD7brnrVu3kJ6ejt27d6OyshJPP/00pk2bhvLyck%2BmSkTkkhBfB0BE5C5FRUXIz88HAOTm5qK%2Bvh6ff/45Ro8ejTVr1kCr1aK4uBihoaEAgAEDBliu7dKlC5qamqDT6Ry6Z2xsLBYuXGh5Pm/ePOzduxfbtm1DZmamG7IiInI/tgASUVA4deoUysvLMXXqVABASEgIJk%2BejKKiIgB3um6zs7MtxZ%2B7GI1GLFmyBMnJyYiMjES3bt2wd%2B9enD9/3q33ISJyJ7YAElFQKCoqQktLC2JiYizHhBBQq9VYvXo1unTp4vBrKhQKy%2BuY3b592%2BqcN954A2%2B99RZWrVqF5ORkhIWFYf78%2BWhubnYyEyIiz2MBSEQBr6WlBX/605%2BwcuVK/PKXv7T62YQJE7B161akpKTg/fffx%2B3bt222AqpUKhiNRqtjvXr1AgDU1taiR48eAO60JN7t8OHDGD9%2BvKXr2WQy4fTp0xg8eLDb8iMicjd2ARNRwNu1axeuXr2KGTNmICkpyeoxceJEFBUVYe7cuWhoaMCUKVPw1Vdf4cyZM9i8eTNOnToFAIiPj8fXX3%2BNU6dO4dKlS7h9%2BzYSExMRFxeHwsJCnDlzBrt378bKlSut7t2/f3/s27cPX375JU6ePIlZs2ahrq7OF/8biIjsxgKQiAJeUVERcnJyoNVq2/xs4sSJ%2BOqrr3DhwgUcOHAAN27cwKhRo5Ceno7169dbWgNnzpyJgQMHIiMjA7169cLhw4cRGhqKrVu34ptvvkFKSgpee%2B01LF261Or1Fy9ejLS0NIwZMwajR4%2BGTqfjgtJE5PckcffgFiIiIiIKemwBJCIiIpIZFoBEREREMsMCkIiIiEhmWAASERERyQwLQCIiIiKZYQFIREREJDMsAImIiIhkhgUgERERkcywACQiIiKSGRaARERERDLDApCIiIhIZlgAEhEREcnM/wL3UJ%2Bt%2B0JREwAAAABJRU5ErkJggg%3D%3D'
p54
ssS'r2-score'
p55
g12
(g16
S'\xaaiHnG)\xe6?'
p56
tp57
Rp58
sS'rmse'
p59
g12
(g16
S'\xb3\x9e\xbbvd\xf9\xa9?'
p60
tp61
Rp62
sa.