(lp0
ccopy_reg
_reconstructor
p1
(csklearn.linear_model.base
LinearRegression
p2
c__builtin__
object
p3
Ntp4
Rp5
(dp6
S'normalize'
p7
I00
sS'n_jobs'
p8
I1
sS'rank_'
p9
I27
sS'fit_intercept'
p10
I01
sS'_residues'
p11
cnumpy.core.multiarray
_reconstruct
p12
(cnumpy
ndarray
p13
(I0
tp14
S'b'
p15
tp16
Rp17
(I1
(I0
tp18
cnumpy
dtype
p19
(S'f8'
p20
I0
I1
tp21
Rp22
(I3
S'<'
p23
NNNI-1
I-1
I0
tp24
bI00
S''
p25
tp26
bsS'singular_'
p27
g12
(g13
(I0
tp28
g15
tp29
Rp30
(I1
(I29
tp31
g22
I00
S'l\x03\xa64j]\xb6@/\x1d\xbe}\xdbd\x90@\x12G\x9c"\xf1\x89w@\x86\xd0\xcc\r\xfe)_@;\xfef@\x08\xc2U@V\xaf\x03~\xf0\xe1Q@q\xad!\xc76FK@\x16w\x90\xcb\xfd\xe5B@\x16=\x178\xff,6@\x93?935.\'@\x92\xcc\xccaP\xd8"@\x8b\xd8\xf3\xd6M\x00"@\xf2\xd2\xa1\xcc\xdfP!@:\xd3/C\x8bS @e\xd9\xd7\x8d\xc3\x13\x1f@G~t\x1ac\x80\x1d@\xda}\x81\x9b\t\xef\x19@\xc2\xae\xdd\xd4\xed\\\x18@\xee&(\xca\xaf\xb0\x15@\xc5q\x94\xd1\x16\x85\x11@5\xbf\xec!\xb2(\x0e@\x16k\x8e\x0e\xb8$\n@\xabsoJ\xfb\xc0\x03@\x01y\xc6\xc9\xcd@\xfc?\x13\xe0n\xc3IF\xf5?\xd7t\xd1\xe8 \\\xf2?\x01\x0b\xf9K\xe2\x97\xef?\xa2\x94\xb8\xec\xf36f=\xa2\x94\xb8\xec\xf36f='
p32
tp33
bsS'coef_'
p34
g12
(g13
(I0
tp35
g15
tp36
Rp37
(I1
(I29
tp38
g22
I00
S"_\xb0\xff$\xf2\x0b\x02@X\x97(5?\xe6\xc2\xbf\xe3\x86V\xc5\xcbc\xb8\xbf\x16\xebJ\xdfp\xbc\xc9?\xe0+\x8eL\x87|\xc0\xbf\x13\xc9\xb79\xc9i\xe1\xbf,\xecc\x15;\xbd\xf4?\xf7\xf7\xd6\x1c\xd2?\xc1\xbfPLa\xd1\xa0\x96\xff?#>\xdc\xdf\t\x86\x06\xc0\xb4e\x8eM\xce\xc18\xc0\x92\xe2I\x98\xff\x1f6@5\xc3\x03\x1d\x04\x9f6@H\xf1\xf4\xee\xcd*3\xc0\xa2\x0f\x19\xbf\xd6\xf9#\xc0R\xf0\x1f\xa2\xc1|\x10@.\x07Af\xa4\n2\xc0j\xc2y\xbd\xc7\xfa<\xc0\x83\r\xc7l\xd3\xeb'\xc0\x15\xab\x94\x98\xca*=\xc0\xeep\x02\x98\xf1\x1bF@\x18*t`\xc8|H@\xa7\x06\x82S\x8f\x8d\x1e\xc0i\xce9[\x0e\xb4\xfa\xbf\xb9\xe0U\xaa\x1a\x8b'@x}\x88(\xfb\xf2\x03\xc0\xd29\xd5\xee\xf8D\x00@\xac\xc7A\xb0^\xc9\xc3?\xc1b\x07\x86\xd8E\x01\xc0"
p39
tp40
bsS'_sklearn_version'
p41
S'0.18.1'
p42
sS'copy_X'
p43
I01
sS'intercept_'
p44
cnumpy.core.multiarray
scalar
p45
(g22
S',\xfb^\x0c5;1@'
p46
tp47
Rp48
sba(dp49
S'pearson-r'
p50
g45
(g22
S'~3\xaa\x91\xeaF\xad?'
p51
tp52
Rp53
sS'plots'
p54
(dp55
S'plot1'
p56
S'data:image/png;base64,iVBORw0KGgoAAAANSUhEUgAAAoAAAAHgCAYAAAA10dzkAAAABHNCSVQICAgIfAhkiAAAAAlwSFlzAAAPYQAAD2EBqD%2BnaQAAIABJREFUeJzs3Xt0VNXd//HPJORKyEACYYLEEOI1RlCoIAqCAhKxWCq2RWQJFqnwQ6sGW8WKgaIPVKvVthq0FlDB6/KK%2BuQRROulQFRAjCgFDKCQgCSShMRcyJzfH3RGhtwmyVzOzHm/1polc2bPOXsGYz7uffZ32wzDMAQAAADLiAh2BwAAABBYBEAAAACLIQACAABYDAEQAADAYgiAAAAAFkMABAAAsBgCIAAAgMUQAAEAACyGAAgAAGAxBEAAAACLIQACAABYDAEQAADAYgiAAAAAFkMABAAAsBgCIAAAgMUQAAEAACyGAAgAAGAxBEAAAACLIQACAABYDAEQAADAYgiAAAAAFkMABAAAsBgCIAAAgMUQAAEAACyGAAgAAGAxBEAAAACLIQACAABYDAEQAADAYgiAAAAAFkMABAAAsBgCIAAAgMUQAAEAACyGAAgAAGAxBEAAAACLIQAC8Nru3btls9m0YsWKYHclZK1YsUI2m027d%2B92Hxs1apRGjRrls2ssWLBANpvNZ%2BcDEH4IgAAk/RhMPvnkk2B3xW9cwcj1iI%2BPV1ZWlu666y5VVlYGu3vtUlNTowULFui9994LdlcAhKAuwe4AgNCRnp6uH374QVFRUcHuSqfk5%2BcrISFBR44c0dtvv617771X69at00cffRSUkbO333673e%2BpqanRwoULJanJ6OFdd92lO%2B64wxddAxCmCIAAvGaz2RQbGxvsbrSqpqZG8fHxrba56qqr1LNnT0nSrFmzNGnSJL388svasGGDhg0b1ux7qqur1bVrV5/3V5Kio6N9er4uXbqoSxf%2B8w6gZUwBA/Bac/cATp8%2BXQkJCdq3b58mTpyohIQE9erVS7fddpsaGxs93u90OvXQQw/prLPOUmxsrHr37q0bbrhB33//vUe71157TZdffrn69OmjmJgYZWZmatGiRU3ON2rUKGVnZ%2BvTTz/VRRddpPj4eN15553t/lyXXHKJJKm4uFjSj1PF27Zt05QpU9SjRw8NHz7c3f6rr77SVVddpaSkJMXGxuonP/mJXn/99Sbn/eKLL3TJJZcoLi5Offv21T333COn09mkXXP3ANbW1mrBggU67bTTFBsbq9TUVF155ZXatWuXdu/erV69ekmSFi5c6J7SXrBggUf/j3f06FEtWrRImZmZiomJUb9%2B/XTnnXeqrq7Oo12/fv3005/%2BVB9%2B%2BKGGDBmi2NhY9e/fX0899VT7vlQApsb/IgLotMbGRo0bN05Dhw7Vn//8Z61du1YPPPCAMjMzNXv2bHe7G264QStWrNB1112n3/72tyouLtbf//53bd68WR999JF7annFihVKSEhQbm6uEhIStG7dOt19992qrKzU/fff73HtsrIyXXbZZZo8ebKmTp2q3r17t7v/u3btkiQlJyd7HP/FL36hU089Vf/zP/8jwzAkHQt1F154oU466STdcccd6tq1q1544QVNnDhRL730kn7%2B859LkkpLS3XxxRfr6NGj7naPP/644uLivPo%2Bf/rTn%2Bqdd97R5MmTdfPNN6uqqkpr1qxRUVGRxowZo/z8fM2ePVs///nPdeWVV0qSBgwY0OI5r7/%2Bej355JO66qqrNHfuXG3cuFGLFy/Wl19%2BqVdeecWj7c6dO3XVVVdpxowZmjZtmpYtW6bp06dr8ODBOuuss7z/YgGYlwEAhmEsX77ckGR8/PHHLbYpLi42JBnLly93H5s2bZohyfjjH//o0fbcc881Bg8e7H7%2BwQcfGJKMVatWebQrKChocrympqbJtW%2B44QYjPj7eqK2tdR8bOXKkIclYunSpV58xLy/PkGRs377d%2BO6774zi4mLjscceM2JiYozevXsb1dXVHu2uvvrqJucYPXq0cfbZZ3v0w%2Bl0GhdccIFx6qmnuo/dcssthiRj48aN7mMHDx407Ha7IckoLi72%2BBwjR450P1%2B2bJkhyXjwwQebXN/pdBqGYRjfffedIcnIy8tr8XO6bNmyxZBkXH/99R7tbrvtNkOSsW7dOvex9PR0Q5Lx/vvve/Q7JibGmDt3bpNrAQhNTAED8IlZs2Z5PB8xYoS%2B/vpr9/MXX3xRdrtdY8eO1aFDh9yPwYMHKyEhQe%2B%2B%2B6677fGjZFVVVTp06JBGjBihmpoaffXVVx7XiYmJ0XXXXdeuvp5%2B%2Bunq1auXMjIydMMNN%2BiUU07Rm2%2B%2B2eTewRM/U3l5udatW6df/vKX7n4dOnRIZWVlGjdunHbs2KF9%2B/ZJkt566y2df/75GjJkiPv9vXr10jXXXNNm/1566SX17NlTN910U5PXOrJI5a233pIk5ebmehyfO3euJOnNN9/0OJ6VlaURI0Z49Pv000/3%2BPsEENqYAgbQabGxse570lx69OjhcW/fjh07VFFRoZSUlGbPcfDgQfefv/jiC911111at25dk/IsFRUVHs9POumkdi%2BieOmll5SYmKioqCj17dtXmZmZzbbLyMjweL5z504ZhqH58%2Bdr/vz5LX6Ok046SXv27NHQoUObvH766ae32b9du3bp9NNP99lCjj179igiIkKnnHKKx3GHw6Hu3btrz549HsdPPvnkJuc48e8TQGgjAALotMjIyDbbOJ1OpaSkaNWqVc2%2B7gqQhw8f1siRI5WYmKg//vGPyszMVGxsrDZt2qTbb7%2B9ySIKb%2B6pO9FFF13kXgXcmhPP7br2bbfdpnHjxjX7nhNDlpl4O3rY0t%2Bn8d/7IAGEPgIggIDIzMzU2rVrdeGFF7Ya2t577z2VlZXp5Zdf1kUXXeQ%2B7lqhG0z9%2B/eXJEVFRWnMmDGttk1PT9eOHTuaHN%2B%2BfXub18nMzNTGjRvV0NDQYs3F9kwFp6eny%2Bl0aseOHTrzzDPdxw8cOKDDhw8rPT3d63MBCA/cAwggIH75y1%2BqsbFRixYtavLa0aNHdfjwYUk/jj4dP9pUX1%2BvRx99NDAdbUVKSopGjRqlxx57TCUlJU1e/%2B6779x/Hj9%2BvDZs2KDCwkKP11saAT3epEmTdOjQIf39739v8prre3Hdr%2Bj63lozfvx4SdJDDz3kcfzBBx%2BUJF1%2B%2BeVtngNAeGEEEICHZcuWqaCgoMnxm2%2B%2BuVPnHTlypG644QYtXrxYW7Zs0aWXXqqoqCjt2LFDL774oh5%2B%2BGFdddVVuuCCC9SjRw9NmzZNv/3tb2Wz2fT000%2BbZvrxkUce0fDhw3X22Wdr5syZ6t%2B/vw4cOKD169fr22%2B/1WeffSZJ%2Bv3vf6%2Bnn35aOTk5uvnmm91lYNLT07V169ZWr3HttdfqqaeeUm5urgoLCzVixAhVV1dr7dq1%2Bn//7//pZz/7meLi4pSVlaXnn39ep512mpKSkpSdna3s7Owm5xs4cKCmTZumxx9/3D3FXlhYqCeffFITJ07UxRdf7JfvCoB5EQABeMjPz2/2%2BPTp0zt97qVLl2rw4MF67LHHdOedd6pLly7q16%2Bfpk6dqgsvvFDSsVp8b7zxhubOnau77rpLPXr00NSpUzV69OgW77sLpKysLH3yySdauHChVqxYobKyMqWkpOjcc8/V3Xff7W6Xmpqqd999VzfddJOWLFmi5ORkzZo1S3369NGMGTNavUZkZKTeeust3XvvvXrmmWf00ksvKTk52R08XZ544gnddNNNuvXWW1VfX6%2B8vLxmA6Crbf/%2B/bVixQq98sorcjgcmjdvnvLy8nzzxQAIKTbDLP9bDQAAgIDgHkAAAACLIQACAABYDAEQAADAYgiAAAAAFkMABAAAsBgCIAAAgMUQAAEAACyGQtCd4HQ6tX//fnXr1q1d%2B3ICAIDgMQxDVVVV6tOnjyIirDkWRgDshP379ystLS3Y3QAAAB3wzTffqG/fvsHuRlAQADuhW7duko79C5SYmBjk3gAAAG9UVlYqLS3N/XvcigiAneCa9k1MTCQAAgAQYqx8%2B5Y1J74BAAAsLCQD4Pvvv68JEyaoT58%2BstlsevXVVz1eNwxDd999t1JTUxUXF6cxY8Zox44dHm3Ky8t1zTXXKDExUd27d9eMGTN05MiRQH4MAACAoAjJAFhdXa2BAwfqkUceafb1%2B%2B67T3/961%2B1dOlSbdy4UV27dtW4ceNUW1vrbnPNNdfoiy%2B%2B0Jo1a/TGG2/o/fff129%2B85tAfQQAAICgsRmGYQS7E51hs9n0yiuvaOLEiZKOjf716dNHc%2BfO1W233SZJqqioUO/evbVixQpNnjxZX375pbKysvTxxx/rJz/5iSSpoKBA48eP17fffqs%2Bffp4de3KykrZ7XZVVFRwDyAAACGC398hOgLYmuLiYpWWlmrMmDHuY3a7XUOHDtX69eslSevXr1f37t3d4U%2BSxowZo4iICG3cuLHFc9fV1amystLjAQAAEGrCLgCWlpZKknr37u1xvHfv3u7XSktLlZKS4vF6ly5dlJSU5G7TnMWLF8tut7sf1AAEAAChKOwCoD/NmzdPFRUV7sc333wT7C4BAAC0W9gFQIfDIUk6cOCAx/EDBw64X3M4HDp48KDH60ePHlV5ebm7TXNiYmLcNf%2Bo/QcAAEJV2AXAjIwMORwOvfPOO%2B5jlZWV2rhxo4YNGyZJGjZsmA4fPqxPP/3U3WbdunVyOp0aOnRowPvcnEanofW7yvTaln1av6tMjc6QXqsDAABMJCR3Ajly5Ih27tzpfl5cXKwtW7YoKSlJJ598sm655Rbdc889OvXUU5WRkaH58%2BerT58%2B7pXCZ555pnJycjRz5kwtXbpUDQ0NuvHGGzV58mSvVwD7U0FRiRau3qaSih/L1qTaY5U3IUs52alB7BkAAAgHIVkG5r333tPFF1/c5Pi0adO0YsUKGYahvLw8Pf744zp8%2BLCGDx%2BuRx99VKeddpq7bXl5uW688UatXr1aERERmjRpkv76178qISHB6374Yxl5QVGJZq/cpBP/Ulyb1eRPHUQIBACgEygDE6IB0Cx8/S9Qo9PQ8D%2Bt8xj5O55NksMeqw9vv0SREdbdvxAAgM4gAIbhPYChrLC4vMXwJ0mGpJKKWhUWlweuUwAAIOwQAE3kYFXL4a8j7QAAAJpDADSRlG6xPm0HAADQHAKgiQzJSFKqPVYt3d1n07HVwEMykgLZLQAAEGYIgCYSGWFT3oQsSWoSAl3P8yZksQAEAAB0CgHQZHKyU5U/dZAcds9pXoc9lhIwAADAJ0KyEHS4y8lO1dgshwqLy3WwqlYp3Y5N%2BzLyBwAAfIEAaFKRETYNy0wOdjcAAEAYYgoYAADAYgiAAAAAFkMABAAAsBgCIAAAgMUQAAEAACyGAAgAAGAxBEAAAACLIQACAABYDAEQAADAYgiAAAAAFkMABAAAsBgCIAAAgMUQAAEAACyGAAgAAGAxBEAAAACLIQACAABYDAEQAADAYgiAAAAAFkMABAAAsBgCIAAAgMUQAAEAACyGAAgAAGAxBEAAAACLIQACAABYDAEQAADAYgiAAAAAFkMABAAAsBgCIAAAgMUQAAEAACwmbANgv379ZLPZmjzmzJkjSRo1alST12bNmhXkXgMAAPhfl2B3wF8%2B/vhjNTY2up8XFRVp7Nix%2BsUvfuE%2BNnPmTP3xj390P4%2BPjw9oHwEAAIIhbANgr169PJ4vWbJEmZmZGjlypPtYfHy8HA5HoLsGAAAQVGE7BXy8%2Bvp6rVy5Ur/%2B9a9ls9ncx1etWqWePXsqOztb8%2BbNU01NTRB7CQAAEBhhOwJ4vFdffVWHDx/W9OnT3cemTJmi9PR09enTR1u3btXtt9%2Bu7du36%2BWXX27xPHV1daqrq3M/r6ys9Ge3AQAA/MJmGIYR7E7427hx4xQdHa3Vq1e32GbdunUaPXq0du7cqczMzGbbLFiwQAsXLmxyvKKiQomJiT7rLwAA8J/KykrZ7XZL//4O%2ByngPXv2aO3atbr%2B%2ButbbTd06FBJ0s6dO1tsM2/ePFVUVLgf33zzjU/7CgAAEAhhPwW8fPlypaSk6PLLL2%2B13ZYtWyRJqampLbaJiYlRTEyMT/tnFo1OQ4XF5TpYVauUbrEakpGkyAhb228EAAAhJ6wDoNPp1PLlyzVt2jR16fLjR921a5eeeeYZjR8/XsnJydq6datuvfVWXXTRRRowYEAQexwcBUUlWrh6m0oqat3HUu2xypuQpZzslgMxAAAITWE9Bbx27Vrt3btXv/71rz2OR0dHa%2B3atbr00kt1xhlnaO7cuZo0aVKr9wiGq4KiEs1euckj/ElSaUWtZq/cpIKikiD1DAAA%2BIslFoH4i79vIvX3tGyj09DwP61rEv5cbJIc9lh9ePslTAcDAMIGi0DCfAo4lAViWrawuLzF8CdJhqSSiloVFpdrWGayT64JAACCL6yngENVoKZlD1a1HP460g4AAIQGAqDJNDoNLVy9Tc3Ny7uOLVy9TY3Ozs/cp3SL9Wk7AAAQGgiAJtOeadnOGpKRpFR7rFq6u8%2BmY9POQzKSOn0tAABgHgRAkwnktGxkhE15E7IkqUkIdD3Pm5DFAhAAAMIMAdBkAj0tm5Odqvypg%2BSwe57PYY9V/tRB1AEEACAMsQrYZL6vrlOETWrtFr8I27F2vpKTnaqxWQ52AgEAwCIIgCZSUFSiOc9sbnYByPGchjTnmc3Kj7D5bIQuMsJGqRcAACyCKWCTaG31b3MM%2BW41MAAAsBYCoEm0tfq3Ob5aDQwAAKyFAGgSHV3Vu2ZbqY97AgAAwh0B0CQ6uqr3tS37mQYGAADtQgA0ibaKMrekrLqeaWAAANAuBECTaK0oc1vYqxcAALQHAdBEWirK3Bb26gUAAO1BHUCTyclO1SVn9NbT63drd1m1Xt2yX1W1R5tta9OxHTvYqxcAALQHAdBkCopKlPdakQ5U1bfajr16AQBARxEATaSgqESzVm7yqq3DHqu8CVk%2B2wmk0WmwFRwAABZBADSJRqeh3Bc%2Ba7PddRf206VZDp8GtIKiEi1cvc2jEHWqjwMmAAAwDxaBmMS/dxxSTX1jm%2B1e3bzP5%2BFv9spNTXYhKa2o1eyVm1RQVOKT6wAAAPMgAJrES5u/9ard9zUNPqv719r%2Bw65j7DcMAED4IQCaRHVd8yt9m%2BOrun9t7T9siP2GAQAIRwRAk%2Bid6H0tP1/V/fM2SFJoGgCA8EIANIlz07p71c4e28Vndf%2B8DZIUmgYAILwQAE2iT494r9r9enh/ny0AaWv/YZuOrQam0DQAAOGFAGgSrjDWmoSYSM0elemza7a2/zCFpgEACF8EQJOIjLDpioGt19w7Uteokfe/69PSLC3tP%2Bywxyp/6iDqAAIAEIZshmFQ46ODKisrZbfbVVFRocTExE6dq9FpaPA9a3S4psGr9reOOU03XnKKz0bn2AkEAGAVvvz9HarYCcQkNuwq8zr8SdJf1v5Hzxbu0YIrzvLJKF1khE3DMpM7fR4AAGB%2BTAGbxL93HWr3e0or69itAwAAtBsB0CT2H/6hw%2B9ltw4AANAeBECTSLXHdeh97NYBAADaiwBoEj26RnXq/ezWAQAAvMUiEJPomRDTqfdbabcOViwDANA5BECTcHRwCliy1m4dBUUlWrh6m0oqfhzxTLXHKm9CFjULAQDwElPAJnGOl3sBN%2BeKgamWGAErKCrR7JWbPMKfJJVW1LIaGgCAdiAAmsTKDXs6/N7H3y8O%2B/DT6DS0cPU2NbfW2XWM1dAAAHiHAGgSH%2B/u3CrecA8/hcXlTUb%2BjsdqaAAAvBe2AXDBggWy2WwejzPOOMP9em1trebMmaPk5GQlJCRo0qRJOnDgQND6Gx8V2eH3WiH8eLvKmdXQAAC0LWwDoCSdddZZKikpcT8%2B/PBD92u33nqrVq9erRdffFH/%2Bte/tH//fl155ZVB6%2BupjoROnyOcw4%2B3q5yttBoaAICOCutVwF26dJHD4WhyvKKiQv/85z/1zDPP6JJLLpEkLV%2B%2BXGeeeaY2bNig888/P9Bd1fbSqk6fI5zDz5CMJKXaY1VaUdvsfYA2SQ4LrYYGAKAzwnoEcMeOHerTp4/69%2B%2Bva665Rnv37pUkffrpp2poaNCYMWPcbc844wydfPLJWr9%2BfVD6uu/7jm8FZ1P4l4KJjLApb0KWpGOf93iu53kTsiyxGhoAgM4K2wA4dOhQrVixQgUFBcrPz1dxcbFGjBihqqoqlZaWKjo6Wt27e5Ze6d27t0pLS1s8Z11dnSorKz0evhIb1bG/CiuFn5zsVOVPHSSH3XOk02GPVf7UQdQBBADAS2E7BXzZZZe5/zxgwAANHTpU6enpeuGFFxQX17Giy4sXL9bChQt91UUPHd0JxGGxIsg52akam%2BVgJxAAADohbAPgibp3767TTjtNO3fu1NixY1VfX6/Dhw97jAIeOHCg2XsGXebNm6fc3Fz388rKSqWlpfmkf317xLf7PbeOOU03XnKK5cJPZIRNwzKTg90NAABCVthOAZ/oyJEj2rVrl1JTUzV48GBFRUXpnXfecb%2B%2Bfft27d27V8OGDWvxHDExMUpMTPR4%2BMr5/dsfaJ77eK/Prg8AAKwjbEcAb7vtNk2YMEHp6enav3%2B/8vLyFBkZqauvvlp2u10zZsxQbm6ukpKSlJiYqJtuuknDhg0LygpgSWp2aWsbXLX/GA0DAADtEbYB8Ntvv9XVV1%2BtsrIy9erVS8OHD9eGDRvUq1cvSdJf/vIXRUREaNKkSaqrq9O4ceP06KOPBq2//951qEPvC%2BfafwAAwD/CNgA%2B99xzrb4eGxurRx55RI888kiAetS6z/dXdOh9uw9V%2B7gnAAAg3FnmHkCzi4vqWBZ/tnBvWO8BDAAAfI8AaBLnnGzv0PtKK%2BvCeg9gAADgewRAk9hf3vGdQLgPEAAAtEfY3gMYavYe7ngAPHEP4EanQaFkAADQIgKgSfRLjtcHO9r/vhP3AC4oKtHC1dtUUlHr0cZKu4UAAIDWMQVsEneOz%2BrQ%2Byafd7J7dK%2BgqESzV27yCH%2BSVFpRq9krN6mgqKTT/QQAAKGPAGgScdGRGnNmSrvf16/nsS3kGp2GFq7e1mw9adexhau3sWIYAAAQAM1kxvD%2B7X6P6/6/wuLyJiN/xzP0484hAADA2rgH0ETas5rXJslx3P1/3r6XFcMAAIAAaCK7D9W0q/3k807WG1v3K6VbrHomxHj1nhNXDAMAAOshAJpEo9PQs4V7vWrbIz5KhqS/rP2P%2B5gjMUbd46NUUdPQ7H2AJ44YAgAA6%2BIeQJMoLC5XaWXb07PD%2BvfQ9zUNOlzT4HH8QGWdDv83/J1Y8c/1PG9CFvUAAQAAAdAsSiu8KwS9bX9Vs8ddwa97fJR6J3pO8zrsscqfOog6gAAAQBJTwKZx6Ei9V%2B0qao%2B2%2BJoh6XBNg1bNGKSICBs7gQAAgGYRAE3i%2B2rvAqA3DlXX6WfnnOSz8wEAgPDCFLBJ7PdyCtgbrPQFAACtYQTQJBx278q4xEfZ9EODwUrf4zQ6DRUWlzPlDQCAlwiAJpEU710AzMlO1Sub98smeYRAq670LSgq0cLV2zx2QUm1xypvQhaLXgAAaAFTwCZR8UND240kpdrjlD91kBx2VvoWFJVo9spNTbbAK62o1eyVm1RQVBKkngEAYG6MAJqEzctBO5vt2Cjg2CxHQKY9zTq92ug0tHD1tmanwl0lcRau3qaxWQ5T9BcAADMhAJrEsP499fd3d7XZrkvEsUHbyAibhmUm%2B7VPZp5eLSwubzLydzxDUklFrQqLy/3%2BPQEAEGqYAjaJ87xcuPH8J9%2Bo0dncuJdvmX169WBV27umtKcdAABWQgA0iY93l3vVzjWq5U9tTa9Kx6ZXAxFEW%2BJtqRtK4gAA0BQB0CQ%2B2nnI67b%2BHtVqz/RqsAzJSFKqPbbJvscuNh2brrZaSRwAALxBADSJfd/XeN3W36NaoTC9GhlhU96ELElqEgKtWhIHAABvEQDNwsvZ1C42%2BX1UK1SmV3OyUymJAwBAB7AK2CSOOp1etQvEXXeu6dXSilrT7zgSyJI4AACEC0YATeKLkkqv2jUa8vu9d6E2veoqifOzc07SsMxk0/QLAACzIgCaREOj92N7rd171%2Bg0tH5XmV7bsk/rd5V1eKVuS9OrSV2j9cgUplcBAAhlTAGbREpCtPYd9m5RRUv33vm6cHNOdqqcTkN3vVak8upjW9WVVddr0ZvbFBEhQiAAACGKEUCTOC/Du90q4rrYmr33zh%2BFmwuKSjTnmc3u8NfcOX014ggAAAKHEUCTiO4S6VW79J4JanQaHve5%2BWNfXG/OecfLn2vB69tUWmm%2BreIAAEDLGAE0iaFerqj9qrRKp9/1v1r81jb3MX8UbvbmnIdrGjzCn2SereIAAEDLCIAmEWHzfuWqIemx94vdIdAfhZs7WuTZLFvFAQCAlhEATWL/Ye93AnF5/P1i1R91%2BqVwc2eKPJthqzgAANAyAqBJFHxR2u73GJKe/HexX/bFbeuc3gjmVnEAAKBlBECT%2BI%2BXhaBPVFj8fauFm6VjQXH%2B5e0r3NzWOb0R7K3iAAChiQoT/scqYJM4WF3fofd98/2xqWNX4eYT6wC6dKR2X0vndCTGqPaoUxU1DabfKg4AEFp8XdMWzQvbEcDFixfrvPPOU7du3ZSSkqKJEydq%2B/btHm1GjRolm83m8Zg1a1ZQ%2Bmvr4P/cfFVa5V5xm5OdqvmXn9lsu46uzs3JTtWHt1%2BiZ2eer4cnn6NnZ56vj%2B4YrSVXnn2s3ye0N%2BNWcQCA0OCPmrZoXtgGwH/961%2BaM2eONmzYoDVr1qihoUGXXnqpqqurPdrNnDlTJSUl7sd9990XlP52Jiy5Vtw2Og0tevPLZtscvzq3/qizXUPrze2129JWcQ57rPKnslUcAKB92qo/K1FhwpfCdgq4oKDA4/mKFSuUkpKiTz/9VBdddJH7eHx8vBwOR6C710RkJwbLjl9x6009wPMXr/XY3aOjQ%2Bs52akam%2BVQYXG5DlbVKqXbsWlfM4z8NToNU/YLsBp%2BFuGt9tS0HZbp3e5ZaFnYBsATVVRJNBBRAAAgAElEQVRUSJKSkjzvS1u1apVWrlwph8OhCRMmaP78%2BYqPj2/2HHV1daqrq3M/r6zs2MKN5vxw1Nmp96/ZVqqBad29atvS1m4dGblzjQ6aCfePAObAzyLawx81bdGysJ0CPp7T6dQtt9yiCy%2B8UNnZ2e7jU6ZM0cqVK/Xuu%2B9q3rx5evrppzV16tQWz7N48WLZ7Xb3Iy0tzXed7OSI9rKPdmv3oeq2G7Zy6XAYWuf%2BEcAc%2BFlEe/mjpi1aZjMMwy%2B/8XNzc71u%2B%2BCDD/qjC26zZ8/W//7v/%2BrDDz9U3759W2y3bt06jR49Wjt37lRmZmaT15sbAUxLS1NFRYUSExM71cf%2Bd7ypzo0BSj3ioxQdGaGDVXUdzpPPzjzfdCN63mp0Ghr%2Bp3UtTiG4Vid/ePslTEEBfsTPIjrC9e9NaUVtqxUmfPHvTWVlpex2u09%2Bf4cqv00Bb9682eP5pk2bdPToUZ1%2B%2BumSpP/85z%2BKjIzU4MGD/dUFSdKNN96oN954Q%2B%2B//36r4U%2BShg4dKkktBsCYmBjFxMT4pZ82mzo9Cvh9TYMSYrrI0LEflI6cLpSH1rl/BDAHfhbREa76s7NXbmryO4wKE77ntwD47rvvuv/84IMPqlu3bnryySfVo0cPSdL333%2Bv6667TiNGjPDL9Q3D0E033aRXXnlF7733njIyMtp8z5YtWyRJqamBvzclKsKmxsbOD8YeqTsqSbLHR%2BlwzY/3%2BiV3jVaZF7UGQ3lonftHAHPgZxEd1WL9We4d9bmALAJ54IEH9Pbbb7vDnyT16NFD99xzjy699FLNnTvX59ecM2eOnnnmGb322mvq1q2bSkuPbbVmt9sVFxenXbt26ZlnntH48eOVnJysrVu36tZbb9VFF12kAQMG%2BLw/bbn4jF763y8O%2BuRcNklxUZF6ZMYgHaquU0q3WA1O76GR97/b5tB6KBdv5v4RwBz4WURnmLnCRDgJyCKQyspKfffdd02Of/fdd6qqqvLLNfPz81VRUaFRo0YpNTXV/Xj%2B%2BeclSdHR0Vq7dq0uvfRSnXHGGZo7d64mTZqk1atX%2B6U/bZmYfZLPzuWaXln/dZn7Bye6S4QX28WdGdI/YP7YExlA%2B/GziM5qrv4sfMtvi0COd%2B211%2BqDDz7QAw88oCFDhkiSNm7cqN/97ncaMWKEnnzySX93wS98eRPpxEc%2B0JZvfFdW5njHl11orixDc%2B1ClWvlodT8/SMUqQYCg59FmBmLQAI0Arh06VJddtllmjJlitLT05Wenq4pU6YoJydHjz76aCC6YHrbS4/47dzHl104tl1cVpvtQhU7lADmwM8iYG4BGQF0qa6u1q5duyRJmZmZ6tq1a6Au7Re%2B/D%2BIU%2B98Sw1%2BrMHnusfvX7%2B7WCPvfzfsyzOw%2BwBgDvwswowYAQzwTiCu/XYvuugixcXFyTAM2Wz8h0CSoiIMNXS2EGArXPcFPvnv3ZYoz2DGHUoAK%2BJnETCngEwBl5WVafTo0TrttNM0fvx4lZQcm2KcMWOGX1YAh6bABOG/rPmPV%2B0ozwAAQPgKSAC89dZbFRUVpb1793rss/urX/1KBQUFgeiC6XWJ7Ph7k7pGac7FTQtXN6emodGrdpRnAAAgfAVkCvjtt9/W//3f/zXZiePUU0/Vnj17AtEF0%2BvM3X//8/OzNTbLoZc37Wuxzp%2B3wqEeIAAAaF1ARgCrq6s9Rv5cysvL/ba1WqipbehYbMvuk6ic7FT3FjpS5yaTDUmTz0uTdOzm7fW7yvTaln1av6tMjX5cpAIAAAInICOAI0aM0FNPPaVFixZJkmw2m5xOp%2B677z5dfPHFgeiC6XV0AUjR/krNfOpj/ePa8zQ2y6Fbxpym5R8V6/APP24D1959gf%2BydoeW/3u3JHlsJxcOdQIBAECAAuB9992n0aNH65NPPlF9fb1%2B//vf64svvlB5ebk%2B%2BuijQHQhrK3ZdlCL3vhCb31e6rHCNz46UjX1jR2aEj4%2B%2BLm46gRSwwsAgNAWkCng7Oxs/ec//9Hw4cP1s5/9TNXV1bryyiu1efNmZWZ6t3gh3HU2if/zw6blXWrqvVvw4S1XkFy4ehvTwQAAhLCAjADu3btXaWlp%2BsMf/tDsayeffHIgumFqXWMjVVHr28DmD%2BFSJxAAACsLyAhgRkaGvvvuuybHy8rKlJGREYgumF50l4D8VfgMdQIBAAhdAUkdLe34ceTIEcXGUm9Oav6eOzOjTiAAAKHLr1PAubm5ko6t%2Bp0/f75HKZjGxkZt3LhR55xzjj%2B7EDL8uQ1cc2ySeifGSLLpQKX3tQOpEwgAQOjzawDcvHmzpGMjgJ9//rmio6Pdr0VHR2vgwIG67bbb/NkFNMM1FrvgirMkSbNXbvKqVIzrfXkTstjMHQCAEObXAPjuu%2B9Kkq677jo9/PDDSkxM9Ofl0ILu8VEeU8yOE%2Br55U8dpIWrt3msIu4eHyVJTd43//Is2eOi9dqWferZNUaySYeO1Cml27FRQYIhAADmF5BVwA899JCOHj3a5Hh5ebm6dOlCMPSjGRf2052XZ6mwuFwHq2qbDWo52akam%2BVo0kaSx7Hvq%2Bu06M1tTcrNuFAoGgCA0BCQRSCTJ0/Wc8891%2BT4Cy%2B8oMmTJweiC6bnr3GzS87srcgIm4ZlJutn55ykYZnJzY7SNdfm%2BGMVP9RrzjObWwx/0o%2BFoguKSvz0aQAAgC8EJABu3Lix2S3fRo0apY0bNwaiC6aXHO%2Bfv4q5L2zpdCBrdBpauHpbm/cIUigaAIDQEJAAWFdX1%2BwUcENDg3744YdAdMH0qmr9swy4tLKu06NyhcXlrY78He/4QtEAAMCcAhIAhwwZoscff7zJ8aVLl2rw4MGB6ILp1fu5DExnRuU6UvSZQtEAAJhXQBaB3HPPPRozZow%2B%2B%2BwzjR49WpL0zjvv6OOPP9bbb78diC6Ynj8nTDu7fVtHij5TKBoAAPMKyAjghRdeqPXr1ystLU0vvPCCVq9erVNOOUVbt27ViBEjAtEF0wtE8ZTjR%2BUanYbW7yrTa1v2af2uslZHB4dkJCnVHutVH206thqYQtEAAJhXQEYAJemcc87RqlWrAnU5NMM1KldQVNKk7l9rJVwiI2zKm5DVZsFoCkUDABAa/DYCWFlZ6fHn1h7w7xSwJEXYpMHpPVRQVKLZKzc1WdTRVgmXnOxU5U8dJIe95aldhz1W%2BVMHdboOYHtGJwEAQPv5bQSwR48eKikpUUpKirp37y6bremIkGEYstlsamxs9Fc38F9OQ/q4uLzFci6Gjo3gLVy9TWOzHM2O4J1YMNofO4G0d3QSAAC0n98C4Lp165SUdOw%2BMNeWcAiu9V8farWcizeLRVzFof3BNTp5YkB1jU76YnQRAAD4MQCOHDmy2T%2Bjea3dW%2Bfbq7QtGCVcWis27c3oJAAA8J7fAuDWrVu9bjtgwAB/dSNkREjy10S4TcfuzxuWmay/v7uzzfbBKOHSVrHpzpayAQAAP/JbADznnHNks9nc9/m1hnsAJZufhgCPX5l7fv9kpdpjVVpR2%2BylXEExGCVcvB11pMA0AACd57dVwMXFxfr6669VXFysl156SRkZGXr00Ue1efNmbd68WY8%2B%2BqgyMzP10ksv%2BasLISUx1j9/FcevzHWVc5GaTgYHu4SLt6OOFJgGAKDz/DYCmJ6e7v7zL37xC/31r3/V%2BPHj3ccGDBigtLQ0zZ8/XxMnTvRXN0LGUT9sBZcQE6n5l5/psXDCVc7lxJW2jiCvtHUVmzbj6CQAAOEmIIWgP//8c2VkZDQ5npGRoW3btgWiC6ZXWef7BHikrlFzntms/AhbkxB4fDkXX5Vw6YzWik0He3QSAIBwE5Ct4M4880wtXrxY9fX17mP19fVavHixzjzzzEB0wdIWrt7WpJiyq5zLz845ScMyk00RrFoqNu2rAtMAAOCYgIwALl26VBMmTFDfvn3dK363bt0qm82m1atXB6ILlhVqq2fNODoJAEC4CUgAHDJkiL7%2B%2BmutWrVKX331lSTpV7/6laZMmaKuXbsGoguWV1rxQ7C74DV/FpsGAAABCoCS1LVrV/3mN78J1OVCTnwXqeao/86/6M0vFRcdyTQqAAAIzD2AkvT0009r%2BPDh6tOnj/bs2SNJ%2Bstf/qLXXnstUF0wtQY/l0L8vrpes1duUkFRiX8vBAAATC8gATA/P1%2B5ubm67LLL9P3337sLP/fo0UMPPfRQILrQokceeUT9%2BvVTbGyshg4dqsLCwqD0o8HP%2B8C5Tt/cghAAAGAtAQmAf/vb3/SPf/xDf/jDH9Sly4%2Bzzj/5yU/0%2BeefB6ILzXr%2B%2BeeVm5urvLw8bdq0SQMHDtS4ceN08ODBoPXJn45fEAIAAKwrIAGwuLhY5557bpPjMTExqq6uDkQXmvXggw9q5syZuu6665SVlaWlS5cqPj5ey5YtC1qfAoHt1AAAsLaABMCMjAxt2bKlyfGCgoKg1QGsr6/Xp59%2BqjFjxriPRUREaMyYMVq/fn2z76mrq1NlZaXHw1cCdjOm2E4NAACrC8gq4NzcXM2ZM0e1tbUyDEOFhYV69tlntXjxYj3xxBOB6EIThw4dUmNjo3r37u1xvHfv3u5SNSdavHixFi5c6Jf%2BxEVFqLrBD/vBnSCV7dTU6DSoMwgAsLSABMDrr79ecXFxuuuuu1RTU6MpU6aoT58%2BevjhhzV58uRAdMEn5s2bp9zcXPfzyspKpaWl%2BeTcUZGSGnxyqlb90NCoNdtKLVsOpqCopMk%2ByKlB3gcZAIBA83sANAxD33zzjSZNmqRrrrlGNTU1OnLkiFJSUvx96Vb17NlTkZGROnDggMfxAwcOyOFwNPuemJgYxcTE%2BKU/P/h7GfB/VdQ0aPbKTZbZWu340b7dh2r00Nr/6MRvurSi1lLfCQAAfr/1zDAMnXLKKfrmm28kSfHx8UEPf5IUHR2twYMH65133nEfczqdeueddzRs2LCA98dmC0wAtFI5mIKiEg3/0zpd/Y8Nuvm5LfpLM%2BFPstZ3AgCAFIAAGBERoVNPPVVlZWX%2BvlS75ebm6h//%2BIeefPJJffnll5o9e7aqq6t13XXXBbwvcV0iA3YtK5SDKSgq0eyVmzymeltjhe8EAACXgNwDuGTJEv3ud79Tfn6%2BsrOzA3FJr/zqV7/Sd999p7vvvlulpaU655xzVFBQ0GRhSCD84O%2BtQJoRruVgGp2GFq7e1uxoX1t8/Z2w4AQAYEYBCYDXXnutampqNHDgQEVHRysuLs7j9fLy4I263HjjjbrxxhuDdn2XxiDMPIZrOZjC4nKvR/5O5MvvhAUnAACzCkgADPZ2b6HACGAAtElyhHE5mI6M4vn6O3FNQbPgBABgRn4NgE6nU/fff79ef/111dfXa/To0crLy2syAgipS6R09Kj/r%2BOafMybkBW2U5HtHcXz9XfS2hS08d/rLVy9TWOzHGH7dwAAMDe/LgK59957deeddyohIUEnnXSSHn74Yc2ZM8eflwxZ8VGBWQTisMeG/ejTkIwkpdpj5W208vV30tYUNAtOAADB5tcRwKeeekqPPvqobrjhBknS2rVrdfnll%2BuJJ55QREQgNz8zv8xeXVW%2B13dby7kkxUdp2gX9dHJyV5UfqVNS12jZ46LV6DTCdvQpMsKmvAlZmr1yk2ySx0ic6/mtY05Vv55d/bIww9sp6HBdhAMAMD%2B/BsC9e/dq/Pjx7udjxoyRzWbT/v371bdvX39eOuQcPOL7bUDioyK04c4xWvfVAcstRsjJTlX%2B1EFNPrcjAJ/b2ynocF2EAwAwP78GwKNHjyo21vOXXFRUlBoaArDnWYiprvP9DYB/umqg1n11wLKLEXKyUzU2yxHwMiyuKejSitpm7wMM90U4AADz82sANAxD06dP99g%2Brba2VrNmzVLXrl3dx15%2B%2BWV/diMkNDQ6fXq%2BsVkpGn92qob/aZ2lFyNERtg0LDM54NdsbQpaCu9FOAAA8/NrAJw2bVqTY1OnTvXnJUNWbJdIVcg3xaDHnNlL/7j2PK3fVeb1YoRAh6RwF8wpaAAA2uLXALh8%2BXJ/nj6s%2BHIv4C/2V6nRabAYIciCNQUNAEBbAlIIGm37ocF3U8CuUT0WIwRfMKagAQBoC7VYTMLXW8EdrKptsx6eTcdWA7MYAQAAayEAmkRUpG%2BnBVO6xboXI0hqEgJZjAAAgHURAE3i5B6%2B2R7vxFE912IEh91zmtcKO4IAAIDmcQ%2BgSXSN6fxfRUujeixGAAAAxyMAmkT3%2BKhOn6O1EiMsRgAAAC4EQJPYXfZDh9977bB0XZadyqgeAADwCgHQJMqr6zv83suyUxndAwAAXmMRiEl0je74X8Xg9B4%2B7AkAAAh3BECT6Bbb8cHYj3eX%2B7AnAAAg3BEATSIupuOLQNbvKmv19UanofW7yvTaln1av6tMjU4fV50GAAAhhXsATaK%2BU1vBtRzoCopKtHD1NpVU/Ljfb2orq4UBAED4YwTQJNKTO74f77D%2BPZs9XlBUotkrN3mEP0kqrajV7JWbVFBU0uFrAgCA0EUANImNX3/fofd1j4/S%2Bc2sAG50Glq4eluzY4OuYwtXb2M6GAAACyIAmkRNB6eAl1x5drO1/wqLy5uM/B3PkFRSUavCYhaQAABgNQRAk4ju0r4Czr27RWtpK3v5HqxqOfx1pB0AAAgfBECTOCfN3q72Vw85udVFHCndvLun0Nt2AAAgfBAATeLb8vaNxD3%2BQXGr9%2B8NyUhSqj1WLY0r2nRsNfCQjKR2XRcAAIQ%2BAqBJ2GztmwKuqW/U39ftbPH1yAib8iZkHTv3idf67z/zJmSxdzAAABZEADSJge2cApak5f9ufRQwJztV%2BVMHqXei5zSvwx6r/FbuHwQAAOGNAGgS8y7Lavd7Dtc0eLmK1zMkGgalXwAAsDICoEl8vq%2BiQ%2B9rbRWvqxB0aWWdx/EDlXUUggYAwMIIgCZRcviHDr2vpVW8FIIGAAAtIQCaxKd721%2BQOblrdIureCkEDQAAWkIANIkDJ0zTemPRz7JbXMVLIWgAANASAqBJJERHtqv95WenavwACkEDAID2IwCaRFaf9pWBmTL05FZfpxA0AABoCQHQJHoltm8k7tCR1qeMKQQNAABaEpYBcPfu3ZoxY4YyMjIUFxenzMxM5eXlqb6%2B3qONzWZr8tiwYUNQ%2BuxoZwD0ZurWVQjaYacQNAAA%2BFGXYHfAH7766is5nU499thjOuWUU1RUVKSZM2equrpaf/7znz3arl27VmeddZb7eXJycqC7K%2BnHKdvWVu66tGfqNic7VWOzHCosLtfBqlqldDv2Xkb%2BAACwrrAMgDk5OcrJyXE/79%2B/v7Zv3678/PwmATA5OVkOhyPQXWzCNWU7a%2BWmVtvZ1P6p28gIm4ZlBifYAgAA8wnLKeDmVFRUKCmp6ajZFVdcoZSUFA0fPlyvv/56EHrmvR7xUUzdAgCATgvLEcAT7dy5U3/72988Rv8SEhL0wAMP6MILL1RERIReeuklTZw4Ua%2B%2B%2BqquuOKKZs9TV1enurofF19UVlb6rI%2BNTkN3vPx5q22chqGxWcEfrQQAAKEtpEYA77jjjmYXbhz/%2BOqrrzzes2/fPuXk5OgXv/iFZs6c6T7es2dP5ebmaujQoTrvvPO0ZMkSTZ06Vffff3%2BL11%2B8eLHsdrv7kZaW5rPPtmFXmQ7XNLTapuKHo9qwq8xn1wQAANYUUiOAc%2BfO1fTp01tt079/f/ef9%2B/fr4svvlgXXHCBHn/88TbPP3ToUK1Zs6bF1%2BfNm6fc3Fz388rKSp%2BFwPVfH/K63YWn9vTJNQEAgDWFVADs1auXevXq5VXbffv26eKLL9bgwYO1fPlyRUS0Pdi5ZcsWpaa2fH9dTEyMYmJivO5vexg%2BbgcAANCSkAqA3tq3b59GjRql9PR0/fnPf9Z3333nfs214vfJJ59UdHS0zj33XEnSyy%2B/rGXLlumJJ54ISp%2B7x0X7tB0AAEBLwjIArlmzRjt37tTOnTvVt29fj9cM48cxtEWLFmnPnj3q0qWLzjjjDD3//PO66qqrAt1dSVJSfJRP2wEAALQkLAPg9OnT27xXcNq0aZo2bVpgOuSFQ9X1bTc6oV2j06DAMwAAaLewDICh6Mv93pWUcbUrKCrRwtXbPHYOSbXHKm9CFnUCAQBAq0KqDEw4q2446nW7gqISzV65qcm2caUVtZq9cpMKikr80UUAABAmCIAm0bubd6uLeyXEaOHqbc2uBnYdW7h6mxqdTVs0Og2t31Wm17bs0/pdZc22AQAA4Y8pYJMY2Le7Vm78ps123WK6NBn5O54hqaSiVoXF5R77/zJlDAAAXBgBNInKWu%2BmgA9W1bXdSNLBqh%2BDHlPGAADgeARAk0hK8G4KuE%2BPOK/apXSLlXRs2rejU8YAACA8EQBNwpEY61W7C/r3VKo9Vi0Ve7Hp2NTukIwkSVJhcbnXU8YAAMAaCIAmMSQjSan21kNgqj1W52cmK29CliQ1CYGu53kTstz1AI%2BfCm6Nt%2B0AAEDoIwCaRGSEzR3sWuIKdjnZqcqfOkiOEwKjwx6r/KmDPBZ1uKaC2%2BJtOwAAEPpYBRyicrJTNTbL0eZOIK6RxdKK2mbvA7TpWHB0TRkDAIDwxwigSbgWa7TEpqaLNSIjbBqWmayfnXOShmUmN7sN3PEji95MGQMAgPBHADQJfy7WaM%2BUMQAACH9MAZuEvxdreDtlDAAAwh8B0CQCsVjDNWUMAACsjSlgk3At1vC2vh8AAEBHEQBNwrVYo6X9OAyxWAMAAPgGARAAAMBiCIAm0ZEyMAAAAB1BADQJ9uwFAACBQgA0CfbsBQAAgUIANAn27AUAAIFCADQJVxmY1lAGBgAA%2BAIB0CQiI2y6YmDrW7JdMTCVMjAAAKDTCIAm0eg09PpnJa22ef2zElYBAwCATiMAmkRbq4AlVgEDAADfIACaBKuAAQBAoBAATYJVwAAAIFAIgCbBKmAAABAoBECTYBUwAAAIFAKgSbAKGAAABAoB0CRYBQwAAAKFAGgSrAIGAACBQgA0CVYBAwCAQCEAmoRrFXBLSzxsYhUwAADwDQKgSURG2JQ3IUuSmoRA1/O8CVmsAgYAAJ1GADSRnOxU5U8dJMcJ9QAd9ljlTx2knOzWy8QAAAB4o0uwOwBPOdmpGpvlUGFxuQ5W1Sql27FpX0b%2BAACArxAATSgywqZhmcnB7gYAAAhTYTsF3K9fP9lsNo/HkiVLPNps3bpVI0aMUGxsrNLS0nTfffcFqbcAAACBE9YjgH/84x81c%2BZM9/Nu3bq5/1xZWalLL71UY8aM0dKlS/X555/r17/%2Btbp3767f/OY3weiuW6PTYAoYAAD4TVgHwG7dusnhcDT72qpVq1RfX69ly5YpOjpaZ511lrZs2aIHH3wwqAGwoKhEC1dv89gVJNUeq7wJWSwCAQAAPhG2U8CStGTJEiUnJ%2Bvcc8/V/fffr6NHj7pfW79%2BvS666CJFR0e7j40bN07bt2/X999/H4zuqqCoRLNXbmqyJVxpRa1mr9ykgqLW9woGAADwRtiOAP72t7/VoEGDlJSUpH//%2B9%2BaN2%2BeSkpK9OCDD0qSSktLlZGR4fGe3r17u1/r0aNHk3PW1dWprq7O/byystJn/W10Glq4epuMZl4zdKwW4MLV2zQ2y8F0MAAA6JSQGgG84447mizsOPHx1VdfSZJyc3M1atQoDRgwQLNmzdIDDzygv/3tbx4Brr0WL14su93ufqSlpfnqo6mwuLzJyN/xDEklFbUqLC732TUBAIA1hdQI4Ny5czV9%2BvRW2/Tv37/Z40OHDtXRo0e1e/dunX766XI4HDpw4IBHG9fzlu4bnDdvnnJzc93PKysrfRYCD1a1HP460g4AAKAlIRUAe/XqpV69enXovVu2bFFERIRSUlIkScOGDdMf/vAHNTQ0KCoqSpK0Zs0anX766c1O/0pSTEyMYmJiOtb5NqR0i227UTvaAQAAtCSkpoC9tX79ej300EP67LPP9PXXX2vVqlW69dZbNXXqVHe4mzJliqKjozVjxgx98cUXev755/Xwww97jPAF0pCMJKXaY5vsA%2Bxi07HVwEMykgLZLQAAEIbCMgDGxMToueee08iRI3XWWWfp3nvv1a233qrHH3/c3cZut%2Bvtt99WcXGxBg8erLlz5%2Bruu%2B8OWgmYyAib8iZkSVKTEOh6njchiwUgAACg02yGYTS38BReqKyslN1uV0VFhRITE31yTuoAAgDgX/74/R1qQuoeQCvIyU7V2CwHO4EAAAC/IQCaUGSETcMyk4PdDQAAEKbC8h5AAAAAtIwACAAAYDEEQAAAAIshAAIAAFgMARAAAMBiCIAAAAAWQwAEAACwGAIgAACAxRAAAQAALIYACAAAYDEEQAAAAIshAAIAAFgMARAAAMBiCIAAAAAWQwAEAACwGAIgAACAxRAAAQAALIYACAAAYDEEQAAAAIshAAIAAFgMARAAAMBiCIAAAAAWQwAEAACwGAIgAACAxRAAAQAALIYACAAAYDEEQAAAAIshAAIAAFgMARAAAMBiCIAAAAAWQwAEAACwGAIgAACAxRAAAQAALIYACAAAYDEEQAAAAIshAAIAAFhMWAbA9957TzabrdnHxx9/LEnavXt3s69v2LAhyL0HAADwry7B7oA/XHDBBSopKfE4Nn/%2BfL3zzjv6yU9%2B4nF87dq1Ouuss9zPk5OTA9JHAACAYAnLABgdHS2Hw%2BF%2B3tDQoNdee0033XSTbDabR9vk5GSPtmbQ6DRUWFyug1W1SukWqyEZSYqMsLX9RgAAAC%2BEZQA80euvv66ysjJdd911TV674oorVFtbq9NOO02///3vdcUVV7R4nrq6OtXV1bmfV1ZW%2BryvBUUlWrh6m0oqat3HUu2xypuQpZzsVJ9fDwAAWE9Y3gN4on/%2B858aN26c%2Bvbt6z6WkJCgBx54QC%2B%2B%2BKLefPNNDR8%2BXBMnTtTrr7/e4rYhz9sAABAbSURBVHkWL14su93ufqSlpfm0nwVFJZq9cpNH%2BJOk0opazV65SQVFJS28EwAAwHs2wzCMYHfCW3fccYf%2B9Kc/tdrmyy%2B/1BlnnOF%2B/u233yo9PV0vvPCCJk2a1Op7r732WhUXF%2BuDDz5o9vXmRgDT0tJUUVGhxMTEdnySphqdhob/aV2T8Odik%2BSwx%2BrD2y9hOhgAgE6orKyU3W73ye/vUBVSU8Bz587V9OnTW23Tv39/j%2BfLly9XcnJyq1O7LkOHDtWaNWtafD0mJkYxMTFe9bW9CovLWwx/kmRIKqmoVWFxuYZlslAFAAB0XEgFwF69eqlXr15etzcMQ8uXL9e1116rqKioNttv2bJFqanBuc/uYFXL4a8j7QAAAFoSUgGwvdatW6fi4mJdf/31TV578sknFR0drXPPPVeS9PLLL2vZsmV64oknAt1NSVJKt1iftgMAAGhJWAfAf/7zn7rgggs87gk83qJFi7Rnzx516dJFZ5xxhp5//nldddVVAe7lMUMykpRqj1VpRa2auynTdQ/gkIykQHcNAACEmZBaBGI2vr6J1LUKWJJHCHQt%2BcifOohSMAAAdBKLQCxSBiZU5GSnKn/qIDnsntO8Dnss4Q8AAPhMWE8Bh6Kc7FSNzXKwEwgAAPAbAqAJRUbYKPUCAAD8hilgAAAAiyEAAgAAWAwBEAAAwGIIgAAAABZDAAQAALAYAiAAAIDFEAABAAAshgAIAABgMQRAAAAAi2EnkE4wDEPSsU2lAQBAaHD93nb9HrciAmAnVFVVSZLS0tKC3BMAANBeVVVVstvtwe5GUNgMK8ffTnI6ndq/f7%2B6desmm83m03NXVlYqLS1N33zzjRITE316bivhe/Qdvkvf4bv0Db5H37Had2kYhqqqqtSnTx9FRFjzbjhGADshIiJCffv29es1EhMTLfHD6G98j77Dd%2Bk7fJe%2BwffoO1b6Lq068udizdgLAABgYQRAAAAAi4lcsGDBgmB3As2LjIzUqFGj1KULM/WdwffoO3yXvsN36Rt8j77Dd2ktLAIBAACwGKaAAQAALIYACAAAYDEEQAAAAIshAAIAAFgMAdCEHnnkEfXr10%2BxsbEaOnSoCgsLg90lU1m8eLHOO%2B88devWTSkpKZo4caK2b9/u0aa2tlZz5sxRcnKyEhISNGnSJB04cMCjzd69e3X55ZcrPj5eKSkp%2Bt3vfqejR48G8qOYypIlS2Sz2XTLLbe4j/E9em/fvn2aOnWqkpOTFRcXp7PPPluffPKJ%2B3XDMHT33XcrNTVVcXFxGjNmjHbs2OFxjvLycl1zzTVKTExU9%2B7dNWPGDB05ciTQHyWoGhsbNX/%2BfGVkZCguLk6ZmZlatGiRx56tfJfNe//99zVhwgT16dNHNptNr776qsfrvvretm7dqhEjRig2NlZpaWm67777/P7Z4AcGTOW5554zoqOjjWXLlhlffPGFMXPmTKN79%2B7GgQMHgt010xg3bpyxfPlyo6ioyNiyZYsxfvx44%2BSTTzaOHDnibjNr1iwjLS3NeOedd4xPPvnEOP/8840LLrjA/frRo0eN7OxsY8yYMcbmzZuNt956y%2BjZs6cxb968YHykoCssLDT69etnDBgwwLj55pvdx/kevVNeXm6kp6cb06dPNzZu3Gh8/fXXxv/93/8ZO3fudLdZsmSJYbfbjVdffdX47LPPjCuuuMLIyMgwfvjhB3ebnJwcY%2BDAgcaGDRuMDz74wDjllFOMq6%2B%2BOhgfKWjuvfdeIzk52XjjjTeM4uJi48UXXzQSEhKMhx9%2B2N2G77J5b731lvGHP/zBePnllw1JxiuvvOLxui%2B%2Bt4qKCqN3797GNddcYxQVFRnPPvusERcXZzz22GMB%2B5zwDQKgyQwZMsSYM2eO%2B3ljY6PRp08fY/HixUHslbkdPHjQkGT861//MgzDMA4fPmxERUUZL774orvNl19%2BaUgy1q9fbxjGsf9QRkREGKWlpe42%2Bfn5RmJiolFXVxfYDxBkVVVVxqmnnmqsWbPGGDlypDsA8j167/bbbzeGDx/e4utOp9NwOBzG/fff7z52%2BPBhIyYmxnj2/7d39zFNnW0YwK9CaQUdXwHbyWRqdDBHTZBGU79GIhENS3QaNwkSpsv8xImbm0ZdYjLdNIvLNt1cZup004H8oXHTbIZQ0eCQjw5U/ChkU1mwaHRiNW5S6P3%2BsXhej5A36Fto4Vy/5CRwnqfnPM%2BVlN45p%2BehsFBERC5cuCAApLq6Wunz888/i06nk%2Bbm5p4bfJDJysqShQsXqvbNnj1bcnJyRIRZdtfjBaC/cvvqq68kJiZG9f5es2aNJCUl9fSUyM94CziItLW1wel0IiMjQ9kXEhKCjIwMVFRUBHBkwe3OnTsAgNjYWACA0%2BmE1%2BtV5ZicnIzExEQlx4qKClgsFphMJqVPZmYmPB4Pzp8/34ujD7zly5cjKytLlRfAHJ/Ejz/%2BCKvVirlz52Lw4MFITU3Frl27lPbLly%2BjpaVFlWVUVBTGjx%2BvyjI6OhpWq1Xpk5GRgZCQEFRWVvbeZAJswoQJKC0tRUNDAwDgzJkzKC8vx4wZMwAwy6flr9wqKiowZcoUGAwGpU9mZiZcLhdu377dS7Mhf%2BBy30Hk5s2b6OjoUH2YAoDJZMKlS5cCNKrg5vP5UFBQgIkTJyIlJQUA0NLSAoPBgOjoaFVfk8mElpYWpU9XOT9s04qioiL89ttvqK6u7tTGHLvvjz/%2BwM6dO/HOO%2B9g3bp1qK6uxttvvw2DwYC8vDwli66yejTLwYMHq9r1ej1iY2M1leXatWvh8XiQnJyM0NBQdHR0YPPmzcjJyQEAZvmU/JVbS0sLhg8f3ukYD9tiYmJ6ZPzkfywAqU9bvnw56uvrUV5eHuih9Dl//vknVq5ciZKSEgwYMCDQw%2BnTfD4frFYrPvroIwBAamoq6uvr8fXXXyMvLy/Ao%2BtbiouLsX//fvzwww946aWXUFdXh4KCAgwZMoRZEvkRbwEHkbi4OISGhnZ6yvL69eswm80BGlXwys/Px5EjR3D8%2BHE899xzyn6z2Yy2tja0traq%2Bj%2Bao9ls7jLnh21a4HQ6cePGDYwdOxZ6vR56vR4nTpzAF198Ab1eD5PJxBy76dlnn8Xo0aNV%2B1588UU0NTUB%2BG8W/%2Bu9bTabcePGDVV7e3s7/vrrL01l%2Bd5772Ht2rWYN28eLBYLcnNzsWrVKnz88ccAmOXT8ldufM/3HywAg4jBYEBaWhpKS0uVfT6fD6WlpbDZbAEcWXAREeTn5%2BPQoUNwOBydbkekpaUhLCxMlaPL5UJTU5OSo81mw7lz51R/7EpKShAZGdnpg7y/mjp1Ks6dO4e6ujpls1qtyMnJUX5mjt0zceLETksRNTQ04PnnnwcADB8%2BHGazWZWlx%2BNBZWWlKsvW1lY4nU6lj8PhgM/nw/jx43thFsHh/v37CAlRfzSFhobC5/MBYJZPy1%2B52Ww2nDx5El6vV%2BlTUlKCpKQk3v7tawL9FAqpFRUVidFolD179siFCxdk0aJFEh0drXrKUuuWLl0qUVFRUlZWJm63W9nu37%2Bv9FmyZIkkJiaKw%2BGQmpoasdlsYrPZlPaHy5dMmzZN6urq5JdffpH4%2BHjNLV/yuEefAhZhjt1VVVUler1eNm/eLI2NjbJ//36JiIiQffv2KX22bNki0dHRcvjwYTl79qzMnDmzyyU4UlNTpbKyUsrLy2XUqFH9fumSx%2BXl5UlCQoKyDMzBgwclLi5O3n//faUPs%2Bza3bt3pba2VmprawWAfPrpp1JbWytXr14VEf/k1traKiaTSXJzc6W%2Bvl6KiookIiKCy8D0QSwAg9D27dslMTFRDAaDjBs3Tk6fPh3oIQUVAF1u3377rdLn77//lmXLlklMTIxERETIq6%2B%2BKm63W3WcK1euyIwZMyQ8PFzi4uLk3XffFa/X28uzCS6PF4DMsft%2B%2BuknSUlJEaPRKMnJyfLNN9%2Bo2n0%2Bn3zwwQdiMpnEaDTK1KlTxeVyqfrcunVLsrOzZdCgQRIZGSkLFiyQu3fv9uY0As7j8cjKlSslMTFRBgwYICNGjJD169erlh1hll07fvx4l38b8/LyRMR/uZ05c0YmTZokRqNREhISZMuWLb01RfIjncgjy6sTERERUb/H7wASERERaQwLQCIiIiKNYQFIREREpDEsAImIiIg0hgUgERERkcawACQiIiLSGBaARERERBrDApCIqIelp6ejoKAg0MMgIlKwACSifqWiogKhoaHIysp6ote98cYbmDVrVg%2BNiogouLAAJKJ%2BxW63Y8WKFTh58iSuXbsW6OEQEQUlFoBE1G/cu3cPBw4cwNKlS5GVlYU9e/ao2s%2BfP49XXnkFkZGReOaZZzB58mT8/vvv2LhxI/bu3YvDhw9Dp9NBp9OhrKwMZWVl0Ol0aG1tVY5RV1cHnU6HK1euAABu3bqF7OxsJCQkICIiAhaLBYWFhb04ayKiJ8cCkIj6jeLiYiQnJyMpKQnz58/H7t278fDfnTc3N2PKlCkwGo1wOBxwOp1YuHAh2tvbsXr1arz22muYPn063G433G43JkyY0K1z/vPPP0hLS8PRo0dRX1%2BPRYsWITc3F1VVVT05VSKi/4s%2B0AMgIvIXu92O%2BfPnAwCmT5%2BOO3fu4MSJE0hPT8eXX36JqKgoFBUVISwsDADwwgsvKK8NDw/HgwcPYDabn%2BicCQkJWL16tfL7ihUrcOzYMRQXF2PcuHF%2BmBURkf/xCiAR9QsulwtVVVXIzs4GAOj1erz%2B%2Buuw2%2B0A/r11O3nyZKX485eOjg58%2BOGHsFgsiI2NxaBBg3Ds2DE0NTX59TxERP7EK4BE1C/Y7Xa0t7djyJAhyj4RgdFoxI4dOxAeHv7ExwwJCVGO85DX61X1%2BeSTT/D555/js88%2Bg8ViwcCBA1FQUIC2trannAkRUc9jAUhEfV57ezu%2B%2B%2B47bNu2DdOmTVO1zZo1C4WFhRgzZgz27t0Lr9fb5VVAg8GAjo4O1b74%2BHgAgNvtRkxMDIB/ryQ%2B6tSpU5g5c6Zy69nn86GhoQGjR4/22/yIiPyNt4CJqM87cuQIbt%2B%2BjTfffBMpKSmqbc6cObDb7cjPz4fH48G8efNQU1ODxsZGfP/993C5XACAYcOG4ezZs3C5XLh58ya8Xi9GjhyJoUOHYuPGjWhsbMTRo0exbds21blHjRqFkpIS/Prrr7h48SIWL16M69evByIGIqJuYwFIRH2e3W5HRkYGoqKiOrXNmTMHNTU1aG5uhsPhwL179/Dyyy8jLS0Nu3btUq4GvvXWW0hKSoLVakV8fDxOnTqFsLAwFBYW4tKlSxgzZgy2bt2KTZs2qY6/YcMGjB07FpmZmUhPT4fZbOaC0kQU9HTy6JdbiIiIiKjf4xVAIiIiIo1hAUhERESkMSwAiYiIiDSGBSARERGRxrAAJCIiItIYFoBEREREGsMCkIiIiEhjWAASERERaQwLQCIiIiKNYQFIREREpDEsAImIiIg0hgUgERERkcb8B6xoVraWMTMEAAAAAElFTkSuQmCC'
p57
ssS'r2-score'
p58
g45
(g22
S'p\r\xcb\x80\x01\xe2\xb1\xbf'
p59
tp60
Rp61
sS'rmse'
p62
g45
(g22
S'\x16B\xca`\xc9qP@'
p63
tp64
Rp65
sa.